
base64_analyzer:     file format elf64-x86-64


Disassembly of section .init:

0000000000001828 <_init>:
    1828:	48 83 ec 08          	sub    $0x8,%rsp
    182c:	48 8b 05 9d b7 22 00 	mov    0x22b79d(%rip),%rax        # 22cfd0 <__gmon_start__>
    1833:	48 85 c0             	test   %rax,%rax
    1836:	74 02                	je     183a <_init+0x12>
    1838:	ff d0                	callq  *%rax
    183a:	48 83 c4 08          	add    $0x8,%rsp
    183e:	c3                   	retq   

Disassembly of section .plt:

0000000000001840 <.plt>:
    1840:	ff 35 5a b5 22 00    	pushq  0x22b55a(%rip)        # 22cda0 <_GLOBAL_OFFSET_TABLE_+0x8>
    1846:	ff 25 5c b5 22 00    	jmpq   *0x22b55c(%rip)        # 22cda8 <_GLOBAL_OFFSET_TABLE_+0x10>
    184c:	0f 1f 40 00          	nopl   0x0(%rax)

0000000000001850 <__uflow@plt>:
    1850:	ff 25 5a b5 22 00    	jmpq   *0x22b55a(%rip)        # 22cdb0 <__uflow@GLIBC_2.2.5>
    1856:	68 00 00 00 00       	pushq  $0x0
    185b:	e9 e0 ff ff ff       	jmpq   1840 <.plt>

0000000000001860 <getenv@plt>:
    1860:	ff 25 52 b5 22 00    	jmpq   *0x22b552(%rip)        # 22cdb8 <getenv@GLIBC_2.2.5>
    1866:	68 01 00 00 00       	pushq  $0x1
    186b:	e9 d0 ff ff ff       	jmpq   1840 <.plt>

0000000000001870 <free@plt>:
    1870:	ff 25 4a b5 22 00    	jmpq   *0x22b54a(%rip)        # 22cdc0 <free@GLIBC_2.2.5>
    1876:	68 02 00 00 00       	pushq  $0x2
    187b:	e9 c0 ff ff ff       	jmpq   1840 <.plt>

0000000000001880 <abort@plt>:
    1880:	ff 25 42 b5 22 00    	jmpq   *0x22b542(%rip)        # 22cdc8 <abort@GLIBC_2.2.5>
    1886:	68 03 00 00 00       	pushq  $0x3
    188b:	e9 b0 ff ff ff       	jmpq   1840 <.plt>

0000000000001890 <__errno_location@plt>:
    1890:	ff 25 3a b5 22 00    	jmpq   *0x22b53a(%rip)        # 22cdd0 <__errno_location@GLIBC_2.2.5>
    1896:	68 04 00 00 00       	pushq  $0x4
    189b:	e9 a0 ff ff ff       	jmpq   1840 <.plt>

00000000000018a0 <strncmp@plt>:
    18a0:	ff 25 32 b5 22 00    	jmpq   *0x22b532(%rip)        # 22cdd8 <strncmp@GLIBC_2.2.5>
    18a6:	68 05 00 00 00       	pushq  $0x5
    18ab:	e9 90 ff ff ff       	jmpq   1840 <.plt>

00000000000018b0 <_exit@plt>:
    18b0:	ff 25 2a b5 22 00    	jmpq   *0x22b52a(%rip)        # 22cde0 <_exit@GLIBC_2.2.5>
    18b6:	68 06 00 00 00       	pushq  $0x6
    18bb:	e9 80 ff ff ff       	jmpq   1840 <.plt>

00000000000018c0 <__fpending@plt>:
    18c0:	ff 25 22 b5 22 00    	jmpq   *0x22b522(%rip)        # 22cde8 <__fpending@GLIBC_2.2.5>
    18c6:	68 07 00 00 00       	pushq  $0x7
    18cb:	e9 70 ff ff ff       	jmpq   1840 <.plt>

00000000000018d0 <write@plt>:
    18d0:	ff 25 1a b5 22 00    	jmpq   *0x22b51a(%rip)        # 22cdf0 <write@GLIBC_2.2.5>
    18d6:	68 08 00 00 00       	pushq  $0x8
    18db:	e9 60 ff ff ff       	jmpq   1840 <.plt>

00000000000018e0 <fread_unlocked@plt>:
    18e0:	ff 25 12 b5 22 00    	jmpq   *0x22b512(%rip)        # 22cdf8 <fread_unlocked@GLIBC_2.2.5>
    18e6:	68 09 00 00 00       	pushq  $0x9
    18eb:	e9 50 ff ff ff       	jmpq   1840 <.plt>

00000000000018f0 <textdomain@plt>:
    18f0:	ff 25 0a b5 22 00    	jmpq   *0x22b50a(%rip)        # 22ce00 <textdomain@GLIBC_2.2.5>
    18f6:	68 0a 00 00 00       	pushq  $0xa
    18fb:	e9 40 ff ff ff       	jmpq   1840 <.plt>

0000000000001900 <fclose@plt>:
    1900:	ff 25 02 b5 22 00    	jmpq   *0x22b502(%rip)        # 22ce08 <fclose@GLIBC_2.2.5>
    1906:	68 0b 00 00 00       	pushq  $0xb
    190b:	e9 30 ff ff ff       	jmpq   1840 <.plt>

0000000000001910 <bindtextdomain@plt>:
    1910:	ff 25 fa b4 22 00    	jmpq   *0x22b4fa(%rip)        # 22ce10 <bindtextdomain@GLIBC_2.2.5>
    1916:	68 0c 00 00 00       	pushq  $0xc
    191b:	e9 20 ff ff ff       	jmpq   1840 <.plt>

0000000000001920 <dcgettext@plt>:
    1920:	ff 25 f2 b4 22 00    	jmpq   *0x22b4f2(%rip)        # 22ce18 <dcgettext@GLIBC_2.2.5>
    1926:	68 0d 00 00 00       	pushq  $0xd
    192b:	e9 10 ff ff ff       	jmpq   1840 <.plt>

0000000000001930 <__ctype_get_mb_cur_max@plt>:
    1930:	ff 25 ea b4 22 00    	jmpq   *0x22b4ea(%rip)        # 22ce20 <__ctype_get_mb_cur_max@GLIBC_2.2.5>
    1936:	68 0e 00 00 00       	pushq  $0xe
    193b:	e9 00 ff ff ff       	jmpq   1840 <.plt>

0000000000001940 <strlen@plt>:
    1940:	ff 25 e2 b4 22 00    	jmpq   *0x22b4e2(%rip)        # 22ce28 <strlen@GLIBC_2.2.5>
    1946:	68 0f 00 00 00       	pushq  $0xf
    194b:	e9 f0 fe ff ff       	jmpq   1840 <.plt>

0000000000001950 <__stack_chk_fail@plt>:
    1950:	ff 25 da b4 22 00    	jmpq   *0x22b4da(%rip)        # 22ce30 <__stack_chk_fail@GLIBC_2.4>
    1956:	68 10 00 00 00       	pushq  $0x10
    195b:	e9 e0 fe ff ff       	jmpq   1840 <.plt>

0000000000001960 <getopt_long@plt>:
    1960:	ff 25 d2 b4 22 00    	jmpq   *0x22b4d2(%rip)        # 22ce38 <getopt_long@GLIBC_2.2.5>
    1966:	68 11 00 00 00       	pushq  $0x11
    196b:	e9 d0 fe ff ff       	jmpq   1840 <.plt>

0000000000001970 <mbrtowc@plt>:
    1970:	ff 25 ca b4 22 00    	jmpq   *0x22b4ca(%rip)        # 22ce40 <mbrtowc@GLIBC_2.2.5>
    1976:	68 12 00 00 00       	pushq  $0x12
    197b:	e9 c0 fe ff ff       	jmpq   1840 <.plt>

0000000000001980 <strchr@plt>:
    1980:	ff 25 c2 b4 22 00    	jmpq   *0x22b4c2(%rip)        # 22ce48 <strchr@GLIBC_2.2.5>
    1986:	68 13 00 00 00       	pushq  $0x13
    198b:	e9 b0 fe ff ff       	jmpq   1840 <.plt>

0000000000001990 <printf@plt>:
    1990:	ff 25 ba b4 22 00    	jmpq   *0x22b4ba(%rip)        # 22ce50 <printf@GLIBC_2.2.5>
    1996:	68 14 00 00 00       	pushq  $0x14
    199b:	e9 a0 fe ff ff       	jmpq   1840 <.plt>

00000000000019a0 <__overflow@plt>:
    19a0:	ff 25 b2 b4 22 00    	jmpq   *0x22b4b2(%rip)        # 22ce58 <__overflow@GLIBC_2.2.5>
    19a6:	68 15 00 00 00       	pushq  $0x15
    19ab:	e9 90 fe ff ff       	jmpq   1840 <.plt>

00000000000019b0 <strrchr@plt>:
    19b0:	ff 25 aa b4 22 00    	jmpq   *0x22b4aa(%rip)        # 22ce60 <strrchr@GLIBC_2.2.5>
    19b6:	68 16 00 00 00       	pushq  $0x16
    19bb:	e9 80 fe ff ff       	jmpq   1840 <.plt>

00000000000019c0 <lseek@plt>:
    19c0:	ff 25 a2 b4 22 00    	jmpq   *0x22b4a2(%rip)        # 22ce68 <lseek@GLIBC_2.2.5>
    19c6:	68 17 00 00 00       	pushq  $0x17
    19cb:	e9 70 fe ff ff       	jmpq   1840 <.plt>

00000000000019d0 <__assert_fail@plt>:
    19d0:	ff 25 9a b4 22 00    	jmpq   *0x22b49a(%rip)        # 22ce70 <__assert_fail@GLIBC_2.2.5>
    19d6:	68 18 00 00 00       	pushq  $0x18
    19db:	e9 60 fe ff ff       	jmpq   1840 <.plt>

00000000000019e0 <__strtoul_internal@plt>:
    19e0:	ff 25 92 b4 22 00    	jmpq   *0x22b492(%rip)        # 22ce78 <__strtoul_internal@GLIBC_2.2.5>
    19e6:	68 19 00 00 00       	pushq  $0x19
    19eb:	e9 50 fe ff ff       	jmpq   1840 <.plt>

00000000000019f0 <memset@plt>:
    19f0:	ff 25 8a b4 22 00    	jmpq   *0x22b48a(%rip)        # 22ce80 <memset@GLIBC_2.2.5>
    19f6:	68 1a 00 00 00       	pushq  $0x1a
    19fb:	e9 40 fe ff ff       	jmpq   1840 <.plt>

0000000000001a00 <fscanf@plt>:
    1a00:	ff 25 82 b4 22 00    	jmpq   *0x22b482(%rip)        # 22ce88 <fscanf@GLIBC_2.2.5>
    1a06:	68 1b 00 00 00       	pushq  $0x1b
    1a0b:	e9 30 fe ff ff       	jmpq   1840 <.plt>

0000000000001a10 <close@plt>:
    1a10:	ff 25 7a b4 22 00    	jmpq   *0x22b47a(%rip)        # 22ce90 <close@GLIBC_2.2.5>
    1a16:	68 1c 00 00 00       	pushq  $0x1c
    1a1b:	e9 20 fe ff ff       	jmpq   1840 <.plt>

0000000000001a20 <posix_fadvise@plt>:
    1a20:	ff 25 72 b4 22 00    	jmpq   *0x22b472(%rip)        # 22ce98 <posix_fadvise@GLIBC_2.2.5>
    1a26:	68 1d 00 00 00       	pushq  $0x1d
    1a2b:	e9 10 fe ff ff       	jmpq   1840 <.plt>

0000000000001a30 <memchr@plt>:
    1a30:	ff 25 6a b4 22 00    	jmpq   *0x22b46a(%rip)        # 22cea0 <memchr@GLIBC_2.2.5>
    1a36:	68 1e 00 00 00       	pushq  $0x1e
    1a3b:	e9 00 fe ff ff       	jmpq   1840 <.plt>

0000000000001a40 <read@plt>:
    1a40:	ff 25 62 b4 22 00    	jmpq   *0x22b462(%rip)        # 22cea8 <read@GLIBC_2.2.5>
    1a46:	68 1f 00 00 00       	pushq  $0x1f
    1a4b:	e9 f0 fd ff ff       	jmpq   1840 <.plt>

0000000000001a50 <memcmp@plt>:
    1a50:	ff 25 5a b4 22 00    	jmpq   *0x22b45a(%rip)        # 22ceb0 <memcmp@GLIBC_2.2.5>
    1a56:	68 20 00 00 00       	pushq  $0x20
    1a5b:	e9 e0 fd ff ff       	jmpq   1840 <.plt>

0000000000001a60 <fputs_unlocked@plt>:
    1a60:	ff 25 52 b4 22 00    	jmpq   *0x22b452(%rip)        # 22ceb8 <fputs_unlocked@GLIBC_2.2.5>
    1a66:	68 21 00 00 00       	pushq  $0x21
    1a6b:	e9 d0 fd ff ff       	jmpq   1840 <.plt>

0000000000001a70 <calloc@plt>:
    1a70:	ff 25 4a b4 22 00    	jmpq   *0x22b44a(%rip)        # 22cec0 <calloc@GLIBC_2.2.5>
    1a76:	68 22 00 00 00       	pushq  $0x22
    1a7b:	e9 c0 fd ff ff       	jmpq   1840 <.plt>

0000000000001a80 <strcmp@plt>:
    1a80:	ff 25 42 b4 22 00    	jmpq   *0x22b442(%rip)        # 22cec8 <strcmp@GLIBC_2.2.5>
    1a86:	68 23 00 00 00       	pushq  $0x23
    1a8b:	e9 b0 fd ff ff       	jmpq   1840 <.plt>

0000000000001a90 <memcpy@plt>:
    1a90:	ff 25 3a b4 22 00    	jmpq   *0x22b43a(%rip)        # 22ced0 <memcpy@GLIBC_2.14>
    1a96:	68 24 00 00 00       	pushq  $0x24
    1a9b:	e9 a0 fd ff ff       	jmpq   1840 <.plt>

0000000000001aa0 <fileno@plt>:
    1aa0:	ff 25 32 b4 22 00    	jmpq   *0x22b432(%rip)        # 22ced8 <fileno@GLIBC_2.2.5>
    1aa6:	68 25 00 00 00       	pushq  $0x25
    1aab:	e9 90 fd ff ff       	jmpq   1840 <.plt>

0000000000001ab0 <malloc@plt>:
    1ab0:	ff 25 2a b4 22 00    	jmpq   *0x22b42a(%rip)        # 22cee0 <malloc@GLIBC_2.2.5>
    1ab6:	68 26 00 00 00       	pushq  $0x26
    1abb:	e9 80 fd ff ff       	jmpq   1840 <.plt>

0000000000001ac0 <fflush@plt>:
    1ac0:	ff 25 22 b4 22 00    	jmpq   *0x22b422(%rip)        # 22cee8 <fflush@GLIBC_2.2.5>
    1ac6:	68 27 00 00 00       	pushq  $0x27
    1acb:	e9 70 fd ff ff       	jmpq   1840 <.plt>

0000000000001ad0 <nl_langinfo@plt>:
    1ad0:	ff 25 1a b4 22 00    	jmpq   *0x22b41a(%rip)        # 22cef0 <nl_langinfo@GLIBC_2.2.5>
    1ad6:	68 28 00 00 00       	pushq  $0x28
    1adb:	e9 60 fd ff ff       	jmpq   1840 <.plt>

0000000000001ae0 <ungetc@plt>:
    1ae0:	ff 25 12 b4 22 00    	jmpq   *0x22b412(%rip)        # 22cef8 <ungetc@GLIBC_2.2.5>
    1ae6:	68 29 00 00 00       	pushq  $0x29
    1aeb:	e9 50 fd ff ff       	jmpq   1840 <.plt>

0000000000001af0 <__fxstat@plt>:
    1af0:	ff 25 0a b4 22 00    	jmpq   *0x22b40a(%rip)        # 22cf00 <__fxstat@GLIBC_2.2.5>
    1af6:	68 2a 00 00 00       	pushq  $0x2a
    1afb:	e9 40 fd ff ff       	jmpq   1840 <.plt>

0000000000001b00 <__freading@plt>:
    1b00:	ff 25 02 b4 22 00    	jmpq   *0x22b402(%rip)        # 22cf08 <__freading@GLIBC_2.2.5>
    1b06:	68 2b 00 00 00       	pushq  $0x2b
    1b0b:	e9 30 fd ff ff       	jmpq   1840 <.plt>

0000000000001b10 <fwrite_unlocked@plt>:
    1b10:	ff 25 fa b3 22 00    	jmpq   *0x22b3fa(%rip)        # 22cf10 <fwrite_unlocked@GLIBC_2.2.5>
    1b16:	68 2c 00 00 00       	pushq  $0x2c
    1b1b:	e9 20 fd ff ff       	jmpq   1840 <.plt>

0000000000001b20 <realloc@plt>:
    1b20:	ff 25 f2 b3 22 00    	jmpq   *0x22b3f2(%rip)        # 22cf18 <realloc@GLIBC_2.2.5>
    1b26:	68 2d 00 00 00       	pushq  $0x2d
    1b2b:	e9 10 fd ff ff       	jmpq   1840 <.plt>

0000000000001b30 <fdopen@plt>:
    1b30:	ff 25 ea b3 22 00    	jmpq   *0x22b3ea(%rip)        # 22cf20 <fdopen@GLIBC_2.2.5>
    1b36:	68 2e 00 00 00       	pushq  $0x2e
    1b3b:	e9 00 fd ff ff       	jmpq   1840 <.plt>

0000000000001b40 <setlocale@plt>:
    1b40:	ff 25 e2 b3 22 00    	jmpq   *0x22b3e2(%rip)        # 22cf28 <setlocale@GLIBC_2.2.5>
    1b46:	68 2f 00 00 00       	pushq  $0x2f
    1b4b:	e9 f0 fc ff ff       	jmpq   1840 <.plt>

0000000000001b50 <__printf_chk@plt>:
    1b50:	ff 25 da b3 22 00    	jmpq   *0x22b3da(%rip)        # 22cf30 <__printf_chk@GLIBC_2.3.4>
    1b56:	68 30 00 00 00       	pushq  $0x30
    1b5b:	e9 e0 fc ff ff       	jmpq   1840 <.plt>

0000000000001b60 <memmove@plt>:
    1b60:	ff 25 d2 b3 22 00    	jmpq   *0x22b3d2(%rip)        # 22cf38 <memmove@GLIBC_2.2.5>
    1b66:	68 31 00 00 00       	pushq  $0x31
    1b6b:	e9 d0 fc ff ff       	jmpq   1840 <.plt>

0000000000001b70 <error@plt>:
    1b70:	ff 25 ca b3 22 00    	jmpq   *0x22b3ca(%rip)        # 22cf40 <error@GLIBC_2.2.5>
    1b76:	68 32 00 00 00       	pushq  $0x32
    1b7b:	e9 c0 fc ff ff       	jmpq   1840 <.plt>

0000000000001b80 <waitpid@plt>:
    1b80:	ff 25 c2 b3 22 00    	jmpq   *0x22b3c2(%rip)        # 22cf48 <waitpid@GLIBC_2.2.5>
    1b86:	68 33 00 00 00       	pushq  $0x33
    1b8b:	e9 b0 fc ff ff       	jmpq   1840 <.plt>

0000000000001b90 <open@plt>:
    1b90:	ff 25 ba b3 22 00    	jmpq   *0x22b3ba(%rip)        # 22cf50 <open@GLIBC_2.2.5>
    1b96:	68 34 00 00 00       	pushq  $0x34
    1b9b:	e9 a0 fc ff ff       	jmpq   1840 <.plt>

0000000000001ba0 <fseeko@plt>:
    1ba0:	ff 25 b2 b3 22 00    	jmpq   *0x22b3b2(%rip)        # 22cf58 <fseeko@GLIBC_2.2.5>
    1ba6:	68 35 00 00 00       	pushq  $0x35
    1bab:	e9 90 fc ff ff       	jmpq   1840 <.plt>

0000000000001bb0 <fopen@plt>:
    1bb0:	ff 25 aa b3 22 00    	jmpq   *0x22b3aa(%rip)        # 22cf60 <fopen@GLIBC_2.2.5>
    1bb6:	68 36 00 00 00       	pushq  $0x36
    1bbb:	e9 80 fc ff ff       	jmpq   1840 <.plt>

0000000000001bc0 <__dprintf_chk@plt>:
    1bc0:	ff 25 a2 b3 22 00    	jmpq   *0x22b3a2(%rip)        # 22cf68 <__dprintf_chk@GLIBC_2.8>
    1bc6:	68 37 00 00 00       	pushq  $0x37
    1bcb:	e9 70 fc ff ff       	jmpq   1840 <.plt>

0000000000001bd0 <shmat@plt>:
    1bd0:	ff 25 9a b3 22 00    	jmpq   *0x22b39a(%rip)        # 22cf70 <shmat@GLIBC_2.2.5>
    1bd6:	68 38 00 00 00       	pushq  $0x38
    1bdb:	e9 60 fc ff ff       	jmpq   1840 <.plt>

0000000000001be0 <__cxa_atexit@plt>:
    1be0:	ff 25 92 b3 22 00    	jmpq   *0x22b392(%rip)        # 22cf78 <__cxa_atexit@GLIBC_2.2.5>
    1be6:	68 39 00 00 00       	pushq  $0x39
    1beb:	e9 50 fc ff ff       	jmpq   1840 <.plt>

0000000000001bf0 <atoi@plt>:
    1bf0:	ff 25 8a b3 22 00    	jmpq   *0x22b38a(%rip)        # 22cf80 <atoi@GLIBC_2.2.5>
    1bf6:	68 3a 00 00 00       	pushq  $0x3a
    1bfb:	e9 40 fc ff ff       	jmpq   1840 <.plt>

0000000000001c00 <exit@plt>:
    1c00:	ff 25 82 b3 22 00    	jmpq   *0x22b382(%rip)        # 22cf88 <exit@GLIBC_2.2.5>
    1c06:	68 3b 00 00 00       	pushq  $0x3b
    1c0b:	e9 30 fc ff ff       	jmpq   1840 <.plt>

0000000000001c10 <fwrite@plt>:
    1c10:	ff 25 7a b3 22 00    	jmpq   *0x22b37a(%rip)        # 22cf90 <fwrite@GLIBC_2.2.5>
    1c16:	68 3c 00 00 00       	pushq  $0x3c
    1c1b:	e9 20 fc ff ff       	jmpq   1840 <.plt>

0000000000001c20 <__fprintf_chk@plt>:
    1c20:	ff 25 72 b3 22 00    	jmpq   *0x22b372(%rip)        # 22cf98 <__fprintf_chk@GLIBC_2.3.4>
    1c26:	68 3d 00 00 00       	pushq  $0x3d
    1c2b:	e9 10 fc ff ff       	jmpq   1840 <.plt>

0000000000001c30 <mbsinit@plt>:
    1c30:	ff 25 6a b3 22 00    	jmpq   *0x22b36a(%rip)        # 22cfa0 <mbsinit@GLIBC_2.2.5>
    1c36:	68 3e 00 00 00       	pushq  $0x3e
    1c3b:	e9 00 fc ff ff       	jmpq   1840 <.plt>

0000000000001c40 <iswprint@plt>:
    1c40:	ff 25 62 b3 22 00    	jmpq   *0x22b362(%rip)        # 22cfa8 <iswprint@GLIBC_2.2.5>
    1c46:	68 3f 00 00 00       	pushq  $0x3f
    1c4b:	e9 f0 fb ff ff       	jmpq   1840 <.plt>

0000000000001c50 <fork@plt>:
    1c50:	ff 25 5a b3 22 00    	jmpq   *0x22b35a(%rip)        # 22cfb0 <fork@GLIBC_2.2.5>
    1c56:	68 40 00 00 00       	pushq  $0x40
    1c5b:	e9 e0 fb ff ff       	jmpq   1840 <.plt>

0000000000001c60 <__ctype_b_loc@plt>:
    1c60:	ff 25 52 b3 22 00    	jmpq   *0x22b352(%rip)        # 22cfb8 <__ctype_b_loc@GLIBC_2.3>
    1c66:	68 41 00 00 00       	pushq  $0x41
    1c6b:	e9 d0 fb ff ff       	jmpq   1840 <.plt>

Disassembly of section .plt.got:

0000000000001c70 <__cxa_finalize@plt>:
    1c70:	ff 25 6a b3 22 00    	jmpq   *0x22b36a(%rip)        # 22cfe0 <__cxa_finalize@GLIBC_2.2.5>
    1c76:	66 90                	xchg   %ax,%ax

Disassembly of section .text:

0000000000001c80 <main>:
    1c80:	48 89 05 59 bf 5f 00 	mov    %rax,0x5fbf59(%rip)        # 5fdbe0 <tmpquadrax>
    1c87:	48 89 3d 72 1c 75 00 	mov    %rdi,0x751c72(%rip)        # 753900 <tmpquadrdi>
    1c8e:	48 89 35 8b bf 5f 00 	mov    %rsi,0x5fbf8b(%rip)        # 5fdc20 <tmpquadrsi>
    1c95:	e8 ae 0b 00 00       	callq  2848 <__afl_setup_first>
    1c9a:	3c 7f                	cmp    $0x7f,%al
    1c9c:	75 48                	jne    1ce6 <runSUT>
    1c9e:	48 8d 3d ee 0f 00 00 	lea    0xfee(%rip),%rdi        # 2c93 <.serverSetupError>
    1ca5:	48 31 c0             	xor    %rax,%rax
    1ca8:	e8 e3 fc ff ff       	callq  1990 <printf@plt>
    1cad:	48 c7 c7 00 00 10 00 	mov    $0x100000,%rdi
    1cb4:	e8 f7 fd ff ff       	callq  1ab0 <malloc@plt>
    1cb9:	48 89 05 48 1c 75 00 	mov    %rax,0x751c48(%rip)        # 753908 <shmptr_edge>
    1cc0:	48 c7 c7 00 00 10 00 	mov    $0x100000,%rdi
    1cc7:	e8 e4 fd ff ff       	callq  1ab0 <malloc@plt>
    1ccc:	48 89 05 5d 1c 75 00 	mov    %rax,0x751c5d(%rip)        # 753930 <shmptr_cmp>
    1cd3:	48 c7 c7 40 00 00 00 	mov    $0x40,%rdi
    1cda:	e8 d1 fd ff ff       	callq  1ab0 <malloc@plt>
    1cdf:	48 89 05 52 1c 75 00 	mov    %rax,0x751c52(%rip)        # 753938 <shmptr_gcnt>

0000000000001ce6 <runSUT>:
    1ce6:	48 8b 05 f3 be 5f 00 	mov    0x5fbef3(%rip),%rax        # 5fdbe0 <tmpquadrax>
    1ced:	48 8b 35 2c bf 5f 00 	mov    0x5fbf2c(%rip),%rsi        # 5fdc20 <tmpquadrsi>
  while (!feof (in));
}

int
main (int argc, char **argv)
{
    1cf4:	41 57                	push   %r15
    1cf6:	41 56                	push   %r14
    1cf8:	41 55                	push   %r13
    1cfa:	41 54                	push   %r12
  int opt;
  FILE *input_fh;
  const char *infile;
  
  /* True if --decode has been given and we should decode data. */
  bool decode = false;
    1cfc:	45 31 ed             	xor    %r13d,%r13d
{
    1cff:	55                   	push   %rbp
    1d00:	53                   	push   %rbx
    1d01:	89 fd                	mov    %edi,%ebp
    1d03:	48 89 f3             	mov    %rsi,%rbx
  /* True if we should ignore non-base64-alphabetic characters. */
  bool ignore_garbage = false;
    1d06:	45 31 e4             	xor    %r12d,%r12d
{
    1d09:	48 83 ec 18          	sub    $0x18,%rsp
  /* Wrap encoded base64 data around the 76:th column, by default. */
  uintmax_t wrap_column = 76;
  

  initialize_main (&argc, &argv);
  set_program_name (argv[0]);
    1d0d:	48 8b 3e             	mov    (%rsi),%rdi
{
    1d10:	64 48 8b 04 25 28 00 	mov    %fs:0x28,%rax
    1d17:	00 00 
    1d19:	48 89 44 24 08       	mov    %rax,0x8(%rsp)
    1d1e:	31 c0                	xor    %eax,%eax
  uintmax_t wrap_column = 76;
    1d20:	48 c7 04 24 4c 00 00 	movq   $0x4c,(%rsp)
    1d27:	00 
      case 'd':
        decode = true;
        break;

      case 'w':
        if (xstrtoumax (optarg, NULL, 0, &wrap_column, NULL) != LONGINT_OK)
    1d28:	49 89 e6             	mov    %rsp,%r14
  set_program_name (argv[0]);
    1d2b:	e8 90 05 01 00       	callq  122c0 <set_program_name>
  setlocale (LC_ALL, "");
    1d30:	48 8d 35 e2 80 02 00 	lea    0x280e2(%rip),%rsi        # 29e19 <quoting_style_vals+0x79>
    1d37:	bf 06 00 00 00       	mov    $0x6,%edi
    1d3c:	e8 ff fd ff ff       	callq  1b40 <setlocale@plt>
  bindtextdomain (PACKAGE, LOCALEDIR);
    1d41:	48 8d 35 f0 76 02 00 	lea    0x276f0(%rip),%rsi        # 29438 <_IO_stdin_used+0xb8>
    1d48:	48 8d 3d db 76 02 00 	lea    0x276db(%rip),%rdi        # 2942a <_IO_stdin_used+0xaa>
    1d4f:	e8 bc fb ff ff       	callq  1910 <bindtextdomain@plt>
  textdomain (PACKAGE);
    1d54:	48 8d 3d cf 76 02 00 	lea    0x276cf(%rip),%rdi        # 2942a <_IO_stdin_used+0xaa>
    1d5b:	e8 90 fb ff ff       	callq  18f0 <textdomain@plt>
  atexit (close_stdout);
    1d60:	48 8d 3d a9 02 01 00 	lea    0x102a9(%rip),%rdi        # 12010 <close_stdout>
    1d67:	e8 f4 75 02 00       	callq  29360 <atexit>
    1d6c:	50                   	push   %rax
    1d6d:	48 b8 ab 94 bb 96 00 	movabs $0x96bb94ab,%rax
    1d74:	00 00 00 
    1d77:	48 89 05 c2 1b 75 00 	mov    %rax,0x751bc2(%rip)        # 753940 <edgeId>
    1d7e:	58                   	pop    %rax
    1d7f:	e8 45 08 00 00       	callq  25c9 <_storeEdge>
  while ((opt = getopt_long (argc, argv, "diw:", long_options, NULL)) != -1)
    1d84:	48 8d 0d f5 ac 22 00 	lea    0x22acf5(%rip),%rcx        # 22ca80 <long_options>
    1d8b:	48 8d 15 e4 76 02 00 	lea    0x276e4(%rip),%rdx        # 29476 <_IO_stdin_used+0xf6>
    1d92:	45 31 c0             	xor    %r8d,%r8d
    1d95:	48 89 de             	mov    %rbx,%rsi
    1d98:	89 ef                	mov    %ebp,%edi
    1d9a:	e8 c1 fb ff ff       	callq  1960 <getopt_long@plt>
    1d9f:	48 89 15 72 1b 75 00 	mov    %rdx,0x751b72(%rip)        # 753918 <tmpquadone>
    1da6:	48 89 0d 83 be 5f 00 	mov    %rcx,0x5fbe83(%rip)        # 5fdc30 <tmpquadtwo>
    1dad:	48 8d 15 3c be 5f 00 	lea    0x5fbe3c(%rip),%rdx        # 5fdbf0 <funcinptr>
    1db4:	48 c7 02 52 15 00 00 	movq   $0x1552,(%rdx)
    1dbb:	48 c7 42 08 6c 00 00 	movq   $0x6c,0x8(%rdx)
    1dc2:	00 
    1dc3:	48 c7 c1 ff ff ff ff 	mov    $0xffffffffffffffff,%rcx
    1dca:	48 89 4a 10          	mov    %rcx,0x10(%rdx)
    1dce:	48 c7 42 18 00 00 00 	movq   $0x0,0x18(%rdx)
    1dd5:	00 
    1dd6:	48 89 c1             	mov    %rax,%rcx
    1dd9:	48 89 4a 20          	mov    %rcx,0x20(%rdx)
    1ddd:	48 c7 42 28 00 00 00 	movq   $0x0,0x28(%rdx)
    1de4:	00 
    1de5:	ff 32                	pushq  (%rdx)
    1de7:	48 8b 15 2a 1b 75 00 	mov    0x751b2a(%rip),%rdx        # 753918 <tmpquadone>
    1dee:	48 8b 0d 3b be 5f 00 	mov    0x5fbe3b(%rip),%rcx        # 5fdc30 <tmpquadtwo>
    1df5:	48 c7 05 50 1b 75 00 	movq   $0x1,0x751b50(%rip)        # 753950 <cmpPassed>
    1dfc:	01 00 00 00 
    1e00:	e8 5b 08 00 00       	callq  2660 <_storeDataFn>
    1e05:	83 f8 ff             	cmp    $0xffffffff,%eax
    1e08:	0f 84 52 03 00 00    	je     2160 <runSUT+0x47a>
    1e0e:	50                   	push   %rax
    1e0f:	48 b8 e5 ae 25 cd 00 	movabs $0xcd25aee5,%rax
    1e16:	00 00 00 
    1e19:	48 89 05 20 1b 75 00 	mov    %rax,0x751b20(%rip)        # 753940 <edgeId>
    1e20:	58                   	pop    %rax
    1e21:	e8 a3 07 00 00       	callq  25c9 <_storeEdge>
    switch (opt)
    1e26:	48 89 15 eb 1a 75 00 	mov    %rdx,0x751aeb(%rip)        # 753918 <tmpquadone>
    1e2d:	48 89 0d fc bd 5f 00 	mov    %rcx,0x5fbdfc(%rip)        # 5fdc30 <tmpquadtwo>
    1e34:	48 8d 15 b5 bd 5f 00 	lea    0x5fbdb5(%rip),%rdx        # 5fdbf0 <funcinptr>
    1e3b:	48 c7 02 53 15 00 00 	movq   $0x1553,(%rdx)
    1e42:	48 c7 42 08 6c 00 00 	movq   $0x6c,0x8(%rdx)
    1e49:	00 
    1e4a:	48 c7 c1 64 00 00 00 	mov    $0x64,%rcx
    1e51:	48 89 4a 10          	mov    %rcx,0x10(%rdx)
    1e55:	48 c7 42 18 00 00 00 	movq   $0x0,0x18(%rdx)
    1e5c:	00 
    1e5d:	48 89 c1             	mov    %rax,%rcx
    1e60:	48 89 4a 20          	mov    %rcx,0x20(%rdx)
    1e64:	48 c7 42 28 00 00 00 	movq   $0x0,0x28(%rdx)
    1e6b:	00 
    1e6c:	ff 32                	pushq  (%rdx)
    1e6e:	48 8b 15 a3 1a 75 00 	mov    0x751aa3(%rip),%rdx        # 753918 <tmpquadone>
    1e75:	48 8b 0d b4 bd 5f 00 	mov    0x5fbdb4(%rip),%rcx        # 5fdc30 <tmpquadtwo>
    1e7c:	48 c7 05 c9 1a 75 00 	movq   $0x1,0x751ac9(%rip)        # 753950 <cmpPassed>
    1e83:	01 00 00 00 
    1e87:	e8 d4 07 00 00       	callq  2660 <_storeDataFn>
    1e8c:	83 f8 64             	cmp    $0x64,%eax
    1e8f:	0f 84 8b 02 00 00    	je     2120 <runSUT+0x43a>
    1e95:	50                   	push   %rax
    1e96:	48 b8 dc b5 a4 b9 00 	movabs $0xb9a4b5dc,%rax
    1e9d:	00 00 00 
    1ea0:	48 89 05 99 1a 75 00 	mov    %rax,0x751a99(%rip)        # 753940 <edgeId>
    1ea7:	58                   	pop    %rax
    1ea8:	e8 1c 07 00 00       	callq  25c9 <_storeEdge>
    1ead:	0f 8e 95 01 00 00    	jle    2048 <runSUT+0x362>
    1eb3:	50                   	push   %rax
    1eb4:	48 c7 c0 ee 5a d2 5c 	mov    $0x5cd25aee,%rax
    1ebb:	48 89 05 7e 1a 75 00 	mov    %rax,0x751a7e(%rip)        # 753940 <edgeId>
    1ec2:	58                   	pop    %rax
    1ec3:	e8 01 07 00 00       	callq  25c9 <_storeEdge>
    1ec8:	48 89 15 49 1a 75 00 	mov    %rdx,0x751a49(%rip)        # 753918 <tmpquadone>
    1ecf:	48 89 0d 5a bd 5f 00 	mov    %rcx,0x5fbd5a(%rip)        # 5fdc30 <tmpquadtwo>
    1ed6:	48 8d 15 13 bd 5f 00 	lea    0x5fbd13(%rip),%rdx        # 5fdbf0 <funcinptr>
    1edd:	48 c7 02 54 15 00 00 	movq   $0x1554,(%rdx)
    1ee4:	48 c7 42 08 6c 00 00 	movq   $0x6c,0x8(%rdx)
    1eeb:	00 
    1eec:	48 c7 c1 69 00 00 00 	mov    $0x69,%rcx
    1ef3:	48 89 4a 10          	mov    %rcx,0x10(%rdx)
    1ef7:	48 c7 42 18 00 00 00 	movq   $0x0,0x18(%rdx)
    1efe:	00 
    1eff:	48 89 c1             	mov    %rax,%rcx
    1f02:	48 89 4a 20          	mov    %rcx,0x20(%rdx)
    1f06:	48 c7 42 28 00 00 00 	movq   $0x0,0x28(%rdx)
    1f0d:	00 
    1f0e:	ff 32                	pushq  (%rdx)
    1f10:	48 8b 15 01 1a 75 00 	mov    0x751a01(%rip),%rdx        # 753918 <tmpquadone>
    1f17:	48 8b 0d 12 bd 5f 00 	mov    0x5fbd12(%rip),%rcx        # 5fdc30 <tmpquadtwo>
    1f1e:	48 c7 05 27 1a 75 00 	movq   $0x1,0x751a27(%rip)        # 753950 <cmpPassed>
    1f25:	01 00 00 00 
    1f29:	e8 32 07 00 00       	callq  2660 <_storeDataFn>
    1f2e:	83 f8 69             	cmp    $0x69,%eax
    1f31:	0f 84 09 02 00 00    	je     2140 <runSUT+0x45a>
    1f37:	50                   	push   %rax
    1f38:	48 c7 c0 bb 96 34 17 	mov    $0x173496bb,%rax
    1f3f:	48 89 05 fa 19 75 00 	mov    %rax,0x7519fa(%rip)        # 753940 <edgeId>
    1f46:	58                   	pop    %rax
    1f47:	e8 7d 06 00 00       	callq  25c9 <_storeEdge>
    1f4c:	48 89 15 c5 19 75 00 	mov    %rdx,0x7519c5(%rip)        # 753918 <tmpquadone>
    1f53:	48 89 0d d6 bc 5f 00 	mov    %rcx,0x5fbcd6(%rip)        # 5fdc30 <tmpquadtwo>
    1f5a:	48 8d 15 8f bc 5f 00 	lea    0x5fbc8f(%rip),%rdx        # 5fdbf0 <funcinptr>
    1f61:	48 c7 02 55 15 00 00 	movq   $0x1555,(%rdx)
    1f68:	48 c7 42 08 6c 00 00 	movq   $0x6c,0x8(%rdx)
    1f6f:	00 
    1f70:	48 c7 c1 77 00 00 00 	mov    $0x77,%rcx
    1f77:	48 89 4a 10          	mov    %rcx,0x10(%rdx)
    1f7b:	48 c7 42 18 00 00 00 	movq   $0x0,0x18(%rdx)
    1f82:	00 
    1f83:	48 89 c1             	mov    %rax,%rcx
    1f86:	48 89 4a 20          	mov    %rcx,0x20(%rdx)
    1f8a:	48 c7 42 28 00 00 00 	movq   $0x0,0x28(%rdx)
    1f91:	00 
    1f92:	ff 32                	pushq  (%rdx)
    1f94:	48 8b 15 7d 19 75 00 	mov    0x75197d(%rip),%rdx        # 753918 <tmpquadone>
    1f9b:	48 8b 0d 8e bc 5f 00 	mov    0x5fbc8e(%rip),%rcx        # 5fdc30 <tmpquadtwo>
    1fa2:	48 c7 05 a3 19 75 00 	movq   $0x1,0x7519a3(%rip)        # 753950 <cmpPassed>
    1fa9:	01 00 00 00 
    1fad:	e8 ae 06 00 00       	callq  2660 <_storeDataFn>
    1fb2:	83 f8 77             	cmp    $0x77,%eax
    1fb5:	0f 85 cf 05 00 00    	jne    258a <runSUT+0x8a4>
    1fbb:	50                   	push   %rax
    1fbc:	48 b8 ae 25 cd 85 00 	movabs $0x85cd25ae,%rax
    1fc3:	00 00 00 
    1fc6:	48 89 05 73 19 75 00 	mov    %rax,0x751973(%rip)        # 753940 <edgeId>
    1fcd:	58                   	pop    %rax
    1fce:	e8 f6 05 00 00       	callq  25c9 <_storeEdge>
        if (xstrtoumax (optarg, NULL, 0, &wrap_column, NULL) != LONGINT_OK)
    1fd3:	48 8b 3d c6 b0 22 00 	mov    0x22b0c6(%rip),%rdi        # 22d0a0 <optarg@@GLIBC_2.2.5>
    1fda:	45 31 c0             	xor    %r8d,%r8d
    1fdd:	31 d2                	xor    %edx,%edx
    1fdf:	31 f6                	xor    %esi,%esi
    1fe1:	4c 89 f1             	mov    %r14,%rcx
    1fe4:	e8 67 1d 02 00       	callq  23d50 <xstrtoumax>
    1fe9:	85 c0                	test   %eax,%eax
    1feb:	0f 84 7b fd ff ff    	je     1d6c <runSUT+0x86>
    1ff1:	50                   	push   %rax
    1ff2:	48 b8 49 73 a1 b8 00 	movabs $0xb8a17349,%rax
    1ff9:	00 00 00 
    1ffc:	48 89 05 3d 19 75 00 	mov    %rax,0x75193d(%rip)        # 753940 <edgeId>
    2003:	58                   	pop    %rax
    2004:	e8 c0 05 00 00       	callq  25c9 <_storeEdge>
          error (EXIT_FAILURE, 0, _("invalid wrap size: %s"),
    2009:	48 8b 3d 90 b0 22 00 	mov    0x22b090(%rip),%rdi        # 22d0a0 <optarg@@GLIBC_2.2.5>
    2010:	e8 0b 9c 01 00       	callq  1bc20 <quotearg>
    2015:	48 8d 35 34 74 02 00 	lea    0x27434(%rip),%rsi        # 29450 <_IO_stdin_used+0xd0>
    201c:	49 89 c7             	mov    %rax,%r15
    201f:	31 ff                	xor    %edi,%edi
    2021:	ba 05 00 00 00       	mov    $0x5,%edx
    2026:	e8 f5 f8 ff ff       	callq  1920 <dcgettext@plt>
    202b:	4c 89 f9             	mov    %r15,%rcx
    202e:	48 89 c2             	mov    %rax,%rdx
    2031:	31 f6                	xor    %esi,%esi
    2033:	bf 01 00 00 00       	mov    $0x1,%edi
    2038:	31 c0                	xor    %eax,%eax
    203a:	e8 31 fb ff ff       	callq  1b70 <error@plt>
    203f:	e9 28 fd ff ff       	jmpq   1d6c <runSUT+0x86>
    2044:	0f 1f 40 00          	nopl   0x0(%rax)
    2048:	50                   	push   %rax
    2049:	48 b8 e2 e6 81 ed 00 	movabs $0xed81e6e2,%rax
    2050:	00 00 00 
    2053:	48 89 05 e6 18 75 00 	mov    %rax,0x7518e6(%rip)        # 753940 <edgeId>
    205a:	58                   	pop    %rax
    205b:	e8 69 05 00 00       	callq  25c9 <_storeEdge>
    switch (opt)
    2060:	48 89 15 b1 18 75 00 	mov    %rdx,0x7518b1(%rip)        # 753918 <tmpquadone>
    2067:	48 89 0d c2 bb 5f 00 	mov    %rcx,0x5fbbc2(%rip)        # 5fdc30 <tmpquadtwo>
    206e:	48 8d 15 7b bb 5f 00 	lea    0x5fbb7b(%rip),%rdx        # 5fdbf0 <funcinptr>
    2075:	48 c7 02 56 15 00 00 	movq   $0x1556,(%rdx)
    207c:	48 c7 42 08 6c 00 00 	movq   $0x6c,0x8(%rdx)
    2083:	00 
    2084:	48 c7 c1 7d ff ff ff 	mov    $0xffffffffffffff7d,%rcx
    208b:	48 89 4a 10          	mov    %rcx,0x10(%rdx)
    208f:	48 c7 42 18 00 00 00 	movq   $0x0,0x18(%rdx)
    2096:	00 
    2097:	48 89 c1             	mov    %rax,%rcx
    209a:	48 89 4a 20          	mov    %rcx,0x20(%rdx)
    209e:	48 c7 42 28 00 00 00 	movq   $0x0,0x28(%rdx)
    20a5:	00 
    20a6:	ff 32                	pushq  (%rdx)
    20a8:	48 8b 15 69 18 75 00 	mov    0x751869(%rip),%rdx        # 753918 <tmpquadone>
    20af:	48 8b 0d 7a bb 5f 00 	mov    0x5fbb7a(%rip),%rcx        # 5fdc30 <tmpquadtwo>
    20b6:	48 c7 05 8f 18 75 00 	movq   $0x1,0x75188f(%rip)        # 753950 <cmpPassed>
    20bd:	01 00 00 00 
    20c1:	e8 9a 05 00 00       	callq  2660 <_storeDataFn>
    20c6:	3d 7d ff ff ff       	cmp    $0xffffff7d,%eax
    20cb:	0f 85 d0 03 00 00    	jne    24a1 <runSUT+0x7bb>
    20d1:	50                   	push   %rax
    20d2:	48 b8 dc 3c b0 dd 00 	movabs $0xddb03cdc,%rax
    20d9:	00 00 00 
    20dc:	48 89 05 5d 18 75 00 	mov    %rax,0x75185d(%rip)        # 753940 <edgeId>
    20e3:	58                   	pop    %rax
    20e4:	e8 e0 04 00 00       	callq  25c9 <_storeEdge>
        ignore_garbage = true;
        break;

      case_GETOPT_HELP_CHAR;

      case_GETOPT_VERSION_CHAR (PROGRAM_NAME, AUTHORS);
    20e9:	48 8b 3d 98 af 22 00 	mov    0x22af98(%rip),%rdi        # 22d088 <stdout@@GLIBC_2.2.5>
    20f0:	48 8b 0d 19 af 22 00 	mov    0x22af19(%rip),%rcx        # 22d010 <Version>
    20f7:	4c 8d 05 68 73 02 00 	lea    0x27368(%rip),%r8        # 29466 <_IO_stdin_used+0xe6>
    20fe:	48 8d 15 21 73 02 00 	lea    0x27321(%rip),%rdx        # 29426 <_IO_stdin_used+0xa6>
    2105:	48 8d 35 9d 72 02 00 	lea    0x2729d(%rip),%rsi        # 293a9 <_IO_stdin_used+0x29>
    210c:	45 31 c9             	xor    %r9d,%r9d
    210f:	31 c0                	xor    %eax,%eax
    2111:	e8 7a 08 02 00       	callq  22990 <version_etc>
    2116:	31 ff                	xor    %edi,%edi
    2118:	e8 e3 fa ff ff       	callq  1c00 <exit@plt>
    211d:	0f 1f 00             	nopl   (%rax)
    2120:	50                   	push   %rax
    2121:	48 c7 c0 d8 6e f7 6b 	mov    $0x6bf76ed8,%rax
    2128:	48 89 05 11 18 75 00 	mov    %rax,0x751811(%rip)        # 753940 <edgeId>
    212f:	58                   	pop    %rax
    2130:	e8 94 04 00 00       	callq  25c9 <_storeEdge>
        decode = true;
    2135:	41 bd 01 00 00 00    	mov    $0x1,%r13d
    213b:	e9 2c fc ff ff       	jmpq   1d6c <runSUT+0x86>
    2140:	50                   	push   %rax
    2141:	48 c7 c0 bb dd af 5d 	mov    $0x5dafddbb,%rax
    2148:	48 89 05 f1 17 75 00 	mov    %rax,0x7517f1(%rip)        # 753940 <edgeId>
    214f:	58                   	pop    %rax
    2150:	e8 74 04 00 00       	callq  25c9 <_storeEdge>
        ignore_garbage = true;
    2155:	41 bc 01 00 00 00    	mov    $0x1,%r12d
    215b:	e9 0c fc ff ff       	jmpq   1d6c <runSUT+0x86>
    2160:	50                   	push   %rax
    2161:	48 b8 db fd da 95 00 	movabs $0x95dafddb,%rax
    2168:	00 00 00 
    216b:	48 89 05 ce 17 75 00 	mov    %rax,0x7517ce(%rip)        # 753940 <edgeId>
    2172:	58                   	pop    %rax
    2173:	e8 51 04 00 00       	callq  25c9 <_storeEdge>
      default:
        usage (EXIT_FAILURE);
        break;
      }

  if (argc - optind > 1)
    2178:	48 63 05 19 af 22 00 	movslq 0x22af19(%rip),%rax        # 22d098 <optind@@GLIBC_2.2.5>
    217f:	89 ea                	mov    %ebp,%edx
    2181:	29 c2                	sub    %eax,%edx
    2183:	83 ea 01             	sub    $0x1,%edx
    2186:	0f 8f b6 03 00 00    	jg     2542 <runSUT+0x85c>
    218c:	50                   	push   %rax
    218d:	48 b8 fb b5 2b f5 00 	movabs $0xf52bb5fb,%rax
    2194:	00 00 00 
    2197:	48 89 05 a2 17 75 00 	mov    %rax,0x7517a2(%rip)        # 753940 <edgeId>
    219e:	58                   	pop    %rax
    219f:	e8 25 04 00 00       	callq  25c9 <_storeEdge>
    {
      error (0, 0, _("extra operand %s"), quote (argv[optind]));
      usage (EXIT_FAILURE);
    }

  if (optind < argc)
    21a4:	48 89 15 6d 17 75 00 	mov    %rdx,0x75176d(%rip)        # 753918 <tmpquadone>
    21ab:	48 89 0d 7e ba 5f 00 	mov    %rcx,0x5fba7e(%rip)        # 5fdc30 <tmpquadtwo>
    21b2:	48 8d 15 37 ba 5f 00 	lea    0x5fba37(%rip),%rdx        # 5fdbf0 <funcinptr>
    21b9:	48 c7 02 57 15 00 00 	movq   $0x1557,(%rdx)
    21c0:	48 c7 42 08 6c 00 00 	movq   $0x6c,0x8(%rdx)
    21c7:	00 
    21c8:	48 89 e9             	mov    %rbp,%rcx
    21cb:	48 89 4a 10          	mov    %rcx,0x10(%rdx)
    21cf:	48 c7 42 18 00 00 00 	movq   $0x0,0x18(%rdx)
    21d6:	00 
    21d7:	48 89 c1             	mov    %rax,%rcx
    21da:	48 89 4a 20          	mov    %rcx,0x20(%rdx)
    21de:	48 c7 42 28 00 00 00 	movq   $0x0,0x28(%rdx)
    21e5:	00 
    21e6:	ff 32                	pushq  (%rdx)
    21e8:	48 8b 15 29 17 75 00 	mov    0x751729(%rip),%rdx        # 753918 <tmpquadone>
    21ef:	48 8b 0d 3a ba 5f 00 	mov    0x5fba3a(%rip),%rcx        # 5fdc30 <tmpquadtwo>
    21f6:	48 c7 05 4f 17 75 00 	movq   $0x1,0x75174f(%rip)        # 753950 <cmpPassed>
    21fd:	01 00 00 00 
    2201:	e8 5a 04 00 00       	callq  2660 <_storeDataFn>
    2206:	39 e8                	cmp    %ebp,%eax
    2208:	0f 8d 99 00 00 00    	jge    22a7 <runSUT+0x5c1>
    220e:	50                   	push   %rax
    220f:	48 b8 bf 76 a5 de 00 	movabs $0xdea576bf,%rax
    2216:	00 00 00 
    2219:	48 89 05 20 17 75 00 	mov    %rax,0x751720(%rip)        # 753940 <edgeId>
    2220:	58                   	pop    %rax
    2221:	e8 a3 03 00 00       	callq  25c9 <_storeEdge>
    infile = argv[optind];
    2226:	48 8b 2c c3          	mov    (%rbx,%rax,8),%rbp
  else
    infile = "-";

  if (STREQ (infile, "-"))
    222a:	48 8d 35 b9 78 02 00 	lea    0x278b9(%rip),%rsi        # 29aea <b64c+0x8a>
    2231:	48 89 ef             	mov    %rbp,%rdi
    2234:	e8 47 f8 ff ff       	callq  1a80 <strcmp@plt>
    2239:	85 c0                	test   %eax,%eax
    223b:	0f 84 82 00 00 00    	je     22c3 <runSUT+0x5dd>
    2241:	50                   	push   %rax
    2242:	48 b8 5d a9 77 a7 00 	movabs $0xa777a95d,%rax
    2249:	00 00 00 
    224c:	48 89 05 ed 16 75 00 	mov    %rax,0x7516ed(%rip)        # 753940 <edgeId>
    2253:	58                   	pop    %rax
    2254:	e8 70 03 00 00       	callq  25c9 <_storeEdge>
        xfreopen (NULL, "rb", stdin);
      input_fh = stdin;
    }
  else
    {
      input_fh = fopen (infile, "rb");
    2259:	48 8d 35 2c 72 02 00 	lea    0x2722c(%rip),%rsi        # 2948c <_IO_stdin_used+0x10c>
    2260:	48 89 ef             	mov    %rbp,%rdi
    2263:	e8 48 f9 ff ff       	callq  1bb0 <fopen@plt>
      if (input_fh == NULL)
    2268:	48 85 c0             	test   %rax,%rax
      input_fh = fopen (infile, "rb");
    226b:	48 89 c3             	mov    %rax,%rbx
      if (input_fh == NULL)
    226e:	75 6f                	jne    22df <runSUT+0x5f9>
    2270:	50                   	push   %rax
    2271:	48 b8 7a 77 1a a2 00 	movabs $0xa21a777a,%rax
    2278:	00 00 00 
    227b:	48 89 05 be 16 75 00 	mov    %rax,0x7516be(%rip)        # 753940 <edgeId>
    2282:	58                   	pop    %rax
    2283:	e8 41 03 00 00       	callq  25c9 <_storeEdge>
        error (EXIT_FAILURE, errno, "%s", infile);
    2288:	e8 03 f6 ff ff       	callq  1890 <__errno_location@plt>
    228d:	8b 30                	mov    (%rax),%esi
    228f:	48 8d 15 cd 71 02 00 	lea    0x271cd(%rip),%rdx        # 29463 <_IO_stdin_used+0xe3>
    2296:	48 89 e9             	mov    %rbp,%rcx
    2299:	bf 01 00 00 00       	mov    $0x1,%edi
    229e:	31 c0                	xor    %eax,%eax
    22a0:	e8 cb f8 ff ff       	callq  1b70 <error@plt>
    22a5:	eb 38                	jmp    22df <runSUT+0x5f9>
    22a7:	50                   	push   %rax
    22a8:	48 c7 c0 d3 10 1d 3a 	mov    $0x3a1d10d3,%rax
    22af:	48 89 05 8a 16 75 00 	mov    %rax,0x75168a(%rip)        # 753940 <edgeId>
    22b6:	58                   	pop    %rax
    22b7:	e8 0d 03 00 00       	callq  25c9 <_storeEdge>
    infile = "-";
    22bc:	48 8d 2d 27 78 02 00 	lea    0x27827(%rip),%rbp        # 29aea <b64c+0x8a>
    22c3:	50                   	push   %rax
    22c4:	48 c7 c0 0d d1 a1 73 	mov    $0x73a1d10d,%rax
    22cb:	48 89 05 6e 16 75 00 	mov    %rax,0x75166e(%rip)        # 753940 <edgeId>
    22d2:	58                   	pop    %rax
    22d3:	e8 f1 02 00 00       	callq  25c9 <_storeEdge>
      input_fh = stdin;
    22d8:	48 8b 1d b1 ad 22 00 	mov    0x22adb1(%rip),%rbx        # 22d090 <stdin@@GLIBC_2.2.5>
    22df:	50                   	push   %rax
    22e0:	48 b8 10 1d 3a e7 00 	movabs $0xe73a1d10,%rax
    22e7:	00 00 00 
    22ea:	48 89 05 4f 16 75 00 	mov    %rax,0x75164f(%rip)        # 753940 <edgeId>
    22f1:	58                   	pop    %rax
    22f2:	e8 d2 02 00 00       	callq  25c9 <_storeEdge>
    }

  fadvise (input_fh, FADVISE_SEQUENTIAL);
    22f7:	be 02 00 00 00       	mov    $0x2,%esi
    22fc:	48 89 df             	mov    %rbx,%rdi
    22ff:	e8 6c ff 00 00       	callq  12270 <fadvise>
  if (decode)
    2304:	45 84 ed             	test   %r13b,%r13b
    2307:	0f 84 b8 00 00 00    	je     23c5 <runSUT+0x6df>
    230d:	50                   	push   %rax
    230e:	48 c7 c0 1d 3a e7 4b 	mov    $0x4be73a1d,%rax
    2315:	48 89 05 24 16 75 00 	mov    %rax,0x751624(%rip)        # 753940 <edgeId>
    231c:	58                   	pop    %rax
    231d:	e8 a7 02 00 00       	callq  25c9 <_storeEdge>
    do_decode (input_fh, stdout, ignore_garbage);
    2322:	48 8b 35 5f ad 22 00 	mov    0x22ad5f(%rip),%rsi        # 22d088 <stdout@@GLIBC_2.2.5>
    2329:	41 0f b6 d4          	movzbl %r12b,%edx
    232d:	48 89 df             	mov    %rbx,%rdi
    2330:	e8 fb 96 00 00       	callq  ba30 <do_decode>
    2335:	50                   	push   %rax
    2336:	48 b8 74 ce 97 a4 00 	movabs $0xa497ce74,%rax
    233d:	00 00 00 
    2340:	48 89 05 f9 15 75 00 	mov    %rax,0x7515f9(%rip)        # 753940 <edgeId>
    2347:	58                   	pop    %rax
    2348:	e8 7c 02 00 00       	callq  25c9 <_storeEdge>
  else
    do_encode (input_fh, stdout, wrap_column);

  if (fclose (input_fh) == EOF)
    234d:	48 89 df             	mov    %rbx,%rdi
    2350:	e8 5b 29 02 00       	callq  24cb0 <rpl_fclose>
    2355:	83 c0 01             	add    $0x1,%eax
    2358:	0f 84 97 00 00 00    	je     23f5 <runSUT+0x70f>
    235e:	50                   	push   %rax
    235f:	48 b8 39 5f 92 ca 00 	movabs $0xca925f39,%rax
    2366:	00 00 00 
    2369:	48 89 05 d0 15 75 00 	mov    %rax,0x7515d0(%rip)        # 753940 <edgeId>
    2370:	58                   	pop    %rax
    2371:	e8 53 02 00 00       	callq  25c9 <_storeEdge>
    2376:	50                   	push   %rax
    2377:	48 c7 c0 9c 2f 49 65 	mov    $0x65492f9c,%rax
    237e:	48 89 05 bb 15 75 00 	mov    %rax,0x7515bb(%rip)        # 753940 <edgeId>
    2385:	58                   	pop    %rax
    2386:	e8 3e 02 00 00       	callq  25c9 <_storeEdge>
      else
        error (EXIT_FAILURE, errno, "%s", infile);
    }

  return EXIT_SUCCESS;
}
    238b:	31 c0                	xor    %eax,%eax
    238d:	48 8b 4c 24 08       	mov    0x8(%rsp),%rcx
    2392:	64 48 33 0c 25 28 00 	xor    %fs:0x28,%rcx
    2399:	00 00 
    239b:	0f 85 0b 02 00 00    	jne    25ac <runSUT+0x8c6>
    23a1:	50                   	push   %rax
    23a2:	48 c7 c0 7c 49 2a 03 	mov    $0x32a497c,%rax
    23a9:	48 89 05 90 15 75 00 	mov    %rax,0x751590(%rip)        # 753940 <edgeId>
    23b0:	58                   	pop    %rax
    23b1:	e8 13 02 00 00       	callq  25c9 <_storeEdge>
    23b6:	48 83 c4 18          	add    $0x18,%rsp
    23ba:	5b                   	pop    %rbx
    23bb:	5d                   	pop    %rbp
    23bc:	41 5c                	pop    %r12
    23be:	41 5d                	pop    %r13
    23c0:	41 5e                	pop    %r14
    23c2:	41 5f                	pop    %r15
    23c4:	c3                   	retq   
    23c5:	50                   	push   %rax
    23c6:	48 b8 32 10 02 a4 00 	movabs $0xa4021032,%rax
    23cd:	00 00 00 
    23d0:	48 89 05 69 15 75 00 	mov    %rax,0x751569(%rip)        # 753940 <edgeId>
    23d7:	58                   	pop    %rax
    23d8:	e8 ec 01 00 00       	callq  25c9 <_storeEdge>
    do_encode (input_fh, stdout, wrap_column);
    23dd:	48 8b 14 24          	mov    (%rsp),%rdx
    23e1:	48 8b 35 a0 ac 22 00 	mov    0x22aca0(%rip),%rsi        # 22d088 <stdout@@GLIBC_2.2.5>
    23e8:	48 89 df             	mov    %rbx,%rdi
    23eb:	e8 e0 8a 00 00       	callq  aed0 <do_encode>
    23f0:	e9 40 ff ff ff       	jmpq   2335 <runSUT+0x64f>
    23f5:	50                   	push   %rax
    23f6:	48 b8 08 01 52 8d 00 	movabs $0x8d520108,%rax
    23fd:	00 00 00 
    2400:	48 89 05 39 15 75 00 	mov    %rax,0x751539(%rip)        # 753940 <edgeId>
    2407:	58                   	pop    %rax
    2408:	e8 bc 01 00 00       	callq  25c9 <_storeEdge>
      if (STREQ (infile, "-"))
    240d:	48 8d 35 d6 76 02 00 	lea    0x276d6(%rip),%rsi        # 29aea <b64c+0x8a>
    2414:	48 89 ef             	mov    %rbp,%rdi
    2417:	e8 64 f6 ff ff       	callq  1a80 <strcmp@plt>
    241c:	41 89 c5             	mov    %eax,%r13d
    241f:	e8 6c f4 ff ff       	callq  1890 <__errno_location@plt>
    2424:	45 85 ed             	test   %r13d,%r13d
    2427:	49 89 c4             	mov    %rax,%r12
    242a:	74 32                	je     245e <runSUT+0x778>
    242c:	50                   	push   %rax
    242d:	48 c7 c0 40 aa 11 78 	mov    $0x7811aa40,%rax
    2434:	48 89 05 05 15 75 00 	mov    %rax,0x751505(%rip)        # 753940 <edgeId>
    243b:	58                   	pop    %rax
    243c:	e8 88 01 00 00       	callq  25c9 <_storeEdge>
        error (EXIT_FAILURE, errno, "%s", infile);
    2441:	8b 30                	mov    (%rax),%esi
    2443:	48 8d 15 19 70 02 00 	lea    0x27019(%rip),%rdx        # 29463 <_IO_stdin_used+0xe3>
    244a:	48 89 e9             	mov    %rbp,%rcx
    244d:	bf 01 00 00 00       	mov    $0x1,%edi
    2452:	31 c0                	xor    %eax,%eax
    2454:	e8 17 f7 ff ff       	callq  1b70 <error@plt>
    2459:	e9 18 ff ff ff       	jmpq   2376 <runSUT+0x690>
    245e:	50                   	push   %rax
    245f:	48 b8 6a 04 9e a1 00 	movabs $0xa19e046a,%rax
    2466:	00 00 00 
    2469:	48 89 05 d0 14 75 00 	mov    %rax,0x7514d0(%rip)        # 753940 <edgeId>
    2470:	58                   	pop    %rax
    2471:	e8 53 01 00 00       	callq  25c9 <_storeEdge>
        error (EXIT_FAILURE, errno, _("closing standard input"));
    2476:	48 8d 35 12 70 02 00 	lea    0x27012(%rip),%rsi        # 2948f <_IO_stdin_used+0x10f>
    247d:	31 ff                	xor    %edi,%edi
    247f:	ba 05 00 00 00       	mov    $0x5,%edx
    2484:	e8 97 f4 ff ff       	callq  1920 <dcgettext@plt>
    2489:	41 8b 34 24          	mov    (%r12),%esi
    248d:	48 89 c2             	mov    %rax,%rdx
    2490:	bf 01 00 00 00       	mov    $0x1,%edi
    2495:	31 c0                	xor    %eax,%eax
    2497:	e8 d4 f6 ff ff       	callq  1b70 <error@plt>
    249c:	e9 d5 fe ff ff       	jmpq   2376 <runSUT+0x690>
    24a1:	50                   	push   %rax
    24a2:	48 c7 c0 3c 43 75 4a 	mov    $0x4a75433c,%rax
    24a9:	48 89 05 90 14 75 00 	mov    %rax,0x751490(%rip)        # 753940 <edgeId>
    24b0:	58                   	pop    %rax
    24b1:	e8 13 01 00 00       	callq  25c9 <_storeEdge>
    switch (opt)
    24b6:	48 89 15 5b 14 75 00 	mov    %rdx,0x75145b(%rip)        # 753918 <tmpquadone>
    24bd:	48 89 0d 6c b7 5f 00 	mov    %rcx,0x5fb76c(%rip)        # 5fdc30 <tmpquadtwo>
    24c4:	48 8d 15 25 b7 5f 00 	lea    0x5fb725(%rip),%rdx        # 5fdbf0 <funcinptr>
    24cb:	48 c7 02 58 15 00 00 	movq   $0x1558,(%rdx)
    24d2:	48 c7 42 08 6c 00 00 	movq   $0x6c,0x8(%rdx)
    24d9:	00 
    24da:	48 c7 c1 7e ff ff ff 	mov    $0xffffffffffffff7e,%rcx
    24e1:	48 89 4a 10          	mov    %rcx,0x10(%rdx)
    24e5:	48 c7 42 18 00 00 00 	movq   $0x0,0x18(%rdx)
    24ec:	00 
    24ed:	48 89 c1             	mov    %rax,%rcx
    24f0:	48 89 4a 20          	mov    %rcx,0x20(%rdx)
    24f4:	48 c7 42 28 00 00 00 	movq   $0x0,0x28(%rdx)
    24fb:	00 
    24fc:	ff 32                	pushq  (%rdx)
    24fe:	48 8b 15 13 14 75 00 	mov    0x751413(%rip),%rdx        # 753918 <tmpquadone>
    2505:	48 8b 0d 24 b7 5f 00 	mov    0x5fb724(%rip),%rcx        # 5fdc30 <tmpquadtwo>
    250c:	48 c7 05 39 14 75 00 	movq   $0x1,0x751439(%rip)        # 753950 <cmpPassed>
    2513:	01 00 00 00 
    2517:	e8 44 01 00 00       	callq  2660 <_storeDataFn>
    251c:	3d 7e ff ff ff       	cmp    $0xffffff7e,%eax
    2521:	75 67                	jne    258a <runSUT+0x8a4>
    2523:	50                   	push   %rax
    2524:	48 b8 67 a8 4e e9 00 	movabs $0xe94ea867,%rax
    252b:	00 00 00 
    252e:	48 89 05 0b 14 75 00 	mov    %rax,0x75140b(%rip)        # 753940 <edgeId>
    2535:	58                   	pop    %rax
    2536:	e8 8e 00 00 00       	callq  25c9 <_storeEdge>
      case_GETOPT_HELP_CHAR;
    253b:	31 ff                	xor    %edi,%edi
    253d:	e8 ae aa 00 00       	callq  cff0 <usage>
    2542:	50                   	push   %rax
    2543:	48 b8 43 75 4a 97 00 	movabs $0x974a7543,%rax
    254a:	00 00 00 
    254d:	48 89 05 ec 13 75 00 	mov    %rax,0x7513ec(%rip)        # 753940 <edgeId>
    2554:	58                   	pop    %rax
    2555:	e8 6f 00 00 00       	callq  25c9 <_storeEdge>
      error (0, 0, _("extra operand %s"), quote (argv[optind]));
    255a:	48 8b 3c c3          	mov    (%rbx,%rax,8),%rdi
    255e:	e8 7d e2 01 00       	callq  207e0 <quote>
    2563:	48 8d 35 11 6f 02 00 	lea    0x26f11(%rip),%rsi        # 2947b <_IO_stdin_used+0xfb>
    256a:	49 89 c6             	mov    %rax,%r14
    256d:	ba 05 00 00 00       	mov    $0x5,%edx
    2572:	31 ff                	xor    %edi,%edi
    2574:	e8 a7 f3 ff ff       	callq  1920 <dcgettext@plt>
    2579:	4c 89 f1             	mov    %r14,%rcx
    257c:	48 89 c2             	mov    %rax,%rdx
    257f:	31 f6                	xor    %esi,%esi
    2581:	31 ff                	xor    %edi,%edi
    2583:	31 c0                	xor    %eax,%eax
    2585:	e8 e6 f5 ff ff       	callq  1b70 <error@plt>
    258a:	50                   	push   %rax
    258b:	48 b8 d2 e5 98 ad 00 	movabs $0xad98e5d2,%rax
    2592:	00 00 00 
    2595:	48 89 05 a4 13 75 00 	mov    %rax,0x7513a4(%rip)        # 753940 <edgeId>
    259c:	58                   	pop    %rax
    259d:	e8 27 00 00 00       	callq  25c9 <_storeEdge>
      usage (EXIT_FAILURE);
    25a2:	bf 01 00 00 00       	mov    $0x1,%edi
    25a7:	e8 44 aa 00 00       	callq  cff0 <usage>
    25ac:	50                   	push   %rax
    25ad:	48 b8 2e c7 6c 95 00 	movabs $0x956cc72e,%rax
    25b4:	00 00 00 
    25b7:	48 89 05 82 13 75 00 	mov    %rax,0x751382(%rip)        # 753940 <edgeId>
    25be:	58                   	pop    %rax
    25bf:	e8 05 00 00 00       	callq  25c9 <_storeEdge>
}
    25c4:	e8 87 f3 ff ff       	callq  1950 <__stack_chk_fail@plt>

00000000000025c9 <_storeEdge>:
    25c9:	50                   	push   %rax
    25ca:	53                   	push   %rbx
    25cb:	51                   	push   %rcx
    25cc:	52                   	push   %rdx
    25cd:	48 83 3d 7b 13 75 00 	cmpq   $0x1,0x75137b(%rip)        # 753950 <cmpPassed>
    25d4:	01 
    25d5:	75 3c                	jne    2613 <_caledgehash>
    25d7:	48 c7 05 6e 13 75 00 	movq   $0x0,0x75136e(%rip)        # 753950 <cmpPassed>
    25de:	00 00 00 00 
    25e2:	48 8b 05 3f b6 5f 00 	mov    0x5fb63f(%rip),%rax        # 5fdc28 <edgeCnt>
    25e9:	48 c1 e0 03          	shl    $0x3,%rax
    25ed:	48 3b 05 f4 b5 5f 00 	cmp    0x5fb5f4(%rip),%rax        # 5fdbe8 <shmSize2>
    25f4:	77 55                	ja     264b <_shm2Full>
    25f6:	48 8b 1d 13 13 75 00 	mov    0x751313(%rip),%rbx        # 753910 <edgehash>
    25fd:	48 8b 15 04 13 75 00 	mov    0x751304(%rip),%rdx        # 753908 <shmptr_edge>
    2604:	48 8d 0c 10          	lea    (%rax,%rdx,1),%rcx
    2608:	48 89 19             	mov    %rbx,(%rcx)
    260b:	48 83 05 15 b6 5f 00 	addq   $0x1,0x5fb615(%rip)        # 5fdc28 <edgeCnt>
    2612:	01 

0000000000002613 <_caledgehash>:
    2613:	48 8b 15 f6 12 75 00 	mov    0x7512f6(%rip),%rdx        # 753910 <edgehash>
    261a:	48 89 d0             	mov    %rdx,%rax
    261d:	48 c1 e0 05          	shl    $0x5,%rax
    2621:	48 01 c2             	add    %rax,%rdx
    2624:	48 8b 05 15 13 75 00 	mov    0x751315(%rip),%rax        # 753940 <edgeId>
    262b:	48 01 d0             	add    %rdx,%rax
    262e:	48 89 05 db 12 75 00 	mov    %rax,0x7512db(%rip)        # 753910 <edgehash>
    2635:	48 b8 ff ff ff ff 00 	movabs $0xffffffff,%rax
    263c:	00 00 00 
    263f:	48 21 05 ca 12 75 00 	and    %rax,0x7512ca(%rip)        # 753910 <edgehash>
    2646:	5a                   	pop    %rdx
    2647:	59                   	pop    %rcx
    2648:	5b                   	pop    %rbx
    2649:	58                   	pop    %rax
    264a:	c3                   	retq   

000000000000264b <_shm2Full>:
    264b:	48 c7 c0 0f 00 00 00 	mov    $0xf,%rax
    2652:	5a                   	pop    %rdx
    2653:	59                   	pop    %rcx
    2654:	5b                   	pop    %rbx
    2655:	58                   	pop    %rax
    2656:	e8 55 f2 ff ff       	callq  18b0 <_exit@plt>
    265b:	0f 1f 44 00 00       	nopl   0x0(%rax,%rax,1)

0000000000002660 <_storeDataFn>:
    2660:	55                   	push   %rbp
    2661:	48 89 e5             	mov    %rsp,%rbp
    2664:	50                   	push   %rax
    2665:	53                   	push   %rbx
    2666:	41 50                	push   %r8
    2668:	41 51                	push   %r9
    266a:	41 52                	push   %r10
    266c:	48 8b 05 c5 12 75 00 	mov    0x7512c5(%rip),%rax        # 753938 <shmptr_gcnt>
    2673:	48 8b 00             	mov    (%rax),%rax
    2676:	48 c1 e0 03          	shl    $0x3,%rax
    267a:	48 83 c0 30          	add    $0x30,%rax
    267e:	48 3b 05 c3 12 75 00 	cmp    0x7512c3(%rip),%rax        # 753948 <shmSize>
    2685:	0f 83 8f 01 00 00    	jae    281a <_shmFull>
    268b:	48 83 3d 9d 12 75 00 	cmpq   $0x0,0x75129d(%rip)        # 753930 <shmptr_cmp>
    2692:	00 
    2693:	0f 84 99 01 00 00    	je     2832 <_shmUninitialize>
    2699:	48 c7 c3 00 00 00 00 	mov    $0x0,%rbx
    26a0:	48 83 e8 30          	sub    $0x30,%rax
    26a4:	48 c1 e8 03          	shr    $0x3,%rax

00000000000026a8 <_storeloop>:
    26a8:	49 89 c2             	mov    %rax,%r10
    26ab:	49 c1 e2 03          	shl    $0x3,%r10
    26af:	4c 03 15 7a 12 75 00 	add    0x75127a(%rip),%r10        # 753930 <shmptr_cmp>
    26b6:	49 89 d9             	mov    %rbx,%r9
    26b9:	49 c1 e1 03          	shl    $0x3,%r9
    26bd:	4c 8d 05 2c b5 5f 00 	lea    0x5fb52c(%rip),%r8        # 5fdbf0 <funcinptr>
    26c4:	4d 01 c1             	add    %r8,%r9
    26c7:	4d 8b 01             	mov    (%r9),%r8
    26ca:	4d 89 02             	mov    %r8,(%r10)
    26cd:	48 83 fb 00          	cmp    $0x0,%rbx
    26d1:	75 07                	jne    26da <_no_get_cmpid>
    26d3:	4c 89 05 4e 12 75 00 	mov    %r8,0x75124e(%rip)        # 753928 <cmpid>

00000000000026da <_no_get_cmpid>:
    26da:	48 ff c0             	inc    %rax
    26dd:	48 ff c3             	inc    %rbx
    26e0:	48 83 fb 06          	cmp    $0x6,%rbx
    26e4:	75 c2                	jne    26a8 <_storeloop>
    26e6:	48 8b 1d 4b 12 75 00 	mov    0x75124b(%rip),%rbx        # 753938 <shmptr_gcnt>
    26ed:	48 89 03             	mov    %rax,(%rbx)
    26f0:	48 8b 05 31 12 75 00 	mov    0x751231(%rip),%rax        # 753928 <cmpid>
    26f7:	48 c1 e0 04          	shl    $0x4,%rax
    26fb:	48 89 c3             	mov    %rax,%rbx
    26fe:	48 83 c3 08          	add    $0x8,%rbx
    2702:	48 81 fb c0 5c 15 00 	cmp    $0x155cc0,%rbx
    2709:	0f 83 17 01 00 00    	jae    2826 <_cmpdictFull>
    270f:	48 8d 1d 2a b5 5f 00 	lea    0x5fb52a(%rip),%rbx        # 5fdc40 <cmpid_dict>
    2716:	48 01 d8             	add    %rbx,%rax
    2719:	48 83 38 00          	cmpq   $0x0,(%rax)
    271d:	0f 84 db 00 00 00    	je     27fe <_insert_entry>
    2723:	49 c7 c0 00 00 00 00 	mov    $0x0,%r8

000000000000272a <_remove_repeated_cycle>:
    272a:	4d 89 c1             	mov    %r8,%r9
    272d:	4d 89 ca             	mov    %r9,%r10
    2730:	49 c1 e1 02          	shl    $0x2,%r9
    2734:	4d 01 d1             	add    %r10,%r9
    2737:	4d 01 d1             	add    %r10,%r9
    273a:	4c 8b 15 f7 11 75 00 	mov    0x7511f7(%rip),%r10        # 753938 <shmptr_gcnt>
    2741:	4d 8b 12             	mov    (%r10),%r10
    2744:	4c 2b 10             	sub    (%rax),%r10
    2747:	4c 3b 10             	cmp    (%rax),%r10
    274a:	0f 87 9f 00 00 00    	ja     27ef <_no_remove_cycle>
    2750:	4d 39 ca             	cmp    %r9,%r10
    2753:	76 67                	jbe    27bc <_remove_cycle>
    2755:	4d 89 c1             	mov    %r8,%r9
    2758:	49 83 c1 01          	add    $0x1,%r9
    275c:	4d 89 ca             	mov    %r9,%r10
    275f:	49 c1 e1 02          	shl    $0x2,%r9
    2763:	4d 01 d1             	add    %r10,%r9
    2766:	4d 01 d1             	add    %r10,%r9
    2769:	4c 8b 15 c8 11 75 00 	mov    0x7511c8(%rip),%r10        # 753938 <shmptr_gcnt>
    2770:	4d 8b 12             	mov    (%r10),%r10
    2773:	4d 29 ca             	sub    %r9,%r10
    2776:	49 c1 e2 03          	shl    $0x3,%r10
    277a:	4c 8b 0d af 11 75 00 	mov    0x7511af(%rip),%r9        # 753930 <shmptr_cmp>
    2781:	4d 01 d1             	add    %r10,%r9
    2784:	49 8b 19             	mov    (%r9),%rbx
    2787:	4d 89 c1             	mov    %r8,%r9
    278a:	49 83 c1 01          	add    $0x1,%r9
    278e:	4d 89 ca             	mov    %r9,%r10
    2791:	49 c1 e1 02          	shl    $0x2,%r9
    2795:	4d 01 d1             	add    %r10,%r9
    2798:	4d 01 d1             	add    %r10,%r9
    279b:	4c 8b 10             	mov    (%rax),%r10
    279e:	4d 29 ca             	sub    %r9,%r10
    27a1:	49 c1 e2 03          	shl    $0x3,%r10
    27a5:	4c 8b 0d 84 11 75 00 	mov    0x751184(%rip),%r9        # 753930 <shmptr_cmp>
    27ac:	4d 01 d1             	add    %r10,%r9
    27af:	49 3b 19             	cmp    (%r9),%rbx
    27b2:	75 3b                	jne    27ef <_no_remove_cycle>
    27b4:	49 ff c0             	inc    %r8
    27b7:	e9 6e ff ff ff       	jmpq   272a <_remove_repeated_cycle>

00000000000027bc <_remove_cycle>:
    27bc:	48 89 15 55 11 75 00 	mov    %rdx,0x751155(%rip)        # 753918 <tmpquadone>
    27c3:	48 8b 10             	mov    (%rax),%rdx
    27c6:	48 8b 05 6b 11 75 00 	mov    0x75116b(%rip),%rax        # 753938 <shmptr_gcnt>
    27cd:	48 89 10             	mov    %rdx,(%rax)
    27d0:	89 d0                	mov    %edx,%eax
    27d2:	48 c1 ea 20          	shr    $0x20,%rdx
    27d6:	49 c7 c0 06 00 00 00 	mov    $0x6,%r8
    27dd:	49 f7 f0             	div    %r8
    27e0:	89 05 42 b4 5f 00    	mov    %eax,0x5fb442(%rip)        # 5fdc28 <edgeCnt>
    27e6:	48 8b 15 2b 11 75 00 	mov    0x75112b(%rip),%rdx        # 753918 <tmpquadone>
    27ed:	eb 1c                	jmp    280b <_skipstoredata>

00000000000027ef <_no_remove_cycle>:
    27ef:	48 8b 1d 42 11 75 00 	mov    0x751142(%rip),%rbx        # 753938 <shmptr_gcnt>
    27f6:	48 8b 1b             	mov    (%rbx),%rbx
    27f9:	48 89 18             	mov    %rbx,(%rax)
    27fc:	eb 0d                	jmp    280b <_skipstoredata>

00000000000027fe <_insert_entry>:
    27fe:	48 8b 1d 33 11 75 00 	mov    0x751133(%rip),%rbx        # 753938 <shmptr_gcnt>
    2805:	48 8b 1b             	mov    (%rbx),%rbx
    2808:	48 89 18             	mov    %rbx,(%rax)

000000000000280b <_skipstoredata>:
    280b:	41 5a                	pop    %r10
    280d:	41 59                	pop    %r9
    280f:	41 58                	pop    %r8
    2811:	5b                   	pop    %rbx
    2812:	58                   	pop    %rax
    2813:	48 89 ec             	mov    %rbp,%rsp
    2816:	5d                   	pop    %rbp
    2817:	c2 08 00             	retq   $0x8

000000000000281a <_shmFull>:
    281a:	48 c7 c0 0f 00 00 00 	mov    $0xf,%rax
    2821:	e8 8a f0 ff ff       	callq  18b0 <_exit@plt>

0000000000002826 <_cmpdictFull>:
    2826:	48 c7 c0 0e 00 00 00 	mov    $0xe,%rax
    282d:	e8 7e f0 ff ff       	callq  18b0 <_exit@plt>

0000000000002832 <_shmUninitialize>:
    2832:	48 89 ec             	mov    %rbp,%rsp
    2835:	5d                   	pop    %rbp
    2836:	48 31 c0             	xor    %rax,%rax
    2839:	c2 08 00             	retq   $0x8
    283c:	0f 1f 40 00          	nopl   0x0(%rax)
    2840:	9f                   	lahf   
    2841:	0f 90 c0             	seto   %al
    2844:	0f 1f 40 00          	nopl   0x0(%rax)

0000000000002848 <__afl_setup_first>:
    2848:	48 8d a4 24 98 fe ff 	lea    -0x168(%rsp),%rsp
    284f:	ff 
    2850:	48 89 04 24          	mov    %rax,(%rsp)
    2854:	48 89 4c 24 08       	mov    %rcx,0x8(%rsp)
    2859:	48 89 7c 24 10       	mov    %rdi,0x10(%rsp)
    285e:	48 89 74 24 20       	mov    %rsi,0x20(%rsp)
    2863:	4c 89 44 24 28       	mov    %r8,0x28(%rsp)
    2868:	4c 89 4c 24 30       	mov    %r9,0x30(%rsp)
    286d:	4c 89 54 24 38       	mov    %r10,0x38(%rsp)
    2872:	4c 89 5c 24 40       	mov    %r11,0x40(%rsp)
    2877:	66 0f d6 44 24 60    	movq   %xmm0,0x60(%rsp)
    287d:	66 0f d6 4c 24 70    	movq   %xmm1,0x70(%rsp)
    2883:	66 0f d6 94 24 80 00 	movq   %xmm2,0x80(%rsp)
    288a:	00 00 
    288c:	66 0f d6 9c 24 90 00 	movq   %xmm3,0x90(%rsp)
    2893:	00 00 
    2895:	66 0f d6 a4 24 a0 00 	movq   %xmm4,0xa0(%rsp)
    289c:	00 00 
    289e:	66 0f d6 ac 24 b0 00 	movq   %xmm5,0xb0(%rsp)
    28a5:	00 00 
    28a7:	66 0f d6 b4 24 c0 00 	movq   %xmm6,0xc0(%rsp)
    28ae:	00 00 
    28b0:	66 0f d6 bc 24 d0 00 	movq   %xmm7,0xd0(%rsp)
    28b7:	00 00 
    28b9:	66 44 0f d6 84 24 e0 	movq   %xmm8,0xe0(%rsp)
    28c0:	00 00 00 
    28c3:	66 44 0f d6 8c 24 f0 	movq   %xmm9,0xf0(%rsp)
    28ca:	00 00 00 
    28cd:	66 44 0f d6 94 24 00 	movq   %xmm10,0x100(%rsp)
    28d4:	01 00 00 
    28d7:	66 44 0f d6 9c 24 10 	movq   %xmm11,0x110(%rsp)
    28de:	01 00 00 
    28e1:	66 44 0f d6 a4 24 20 	movq   %xmm12,0x120(%rsp)
    28e8:	01 00 00 
    28eb:	66 44 0f d6 ac 24 30 	movq   %xmm13,0x130(%rsp)
    28f2:	01 00 00 
    28f5:	66 44 0f d6 b4 24 40 	movq   %xmm14,0x140(%rsp)
    28fc:	01 00 00 
    28ff:	66 44 0f d6 bc 24 50 	movq   %xmm15,0x150(%rsp)
    2906:	01 00 00 
    2909:	48 89 94 24 60 01 00 	mov    %rdx,0x160(%rsp)
    2910:	00 
    2911:	41 54                	push   %r12
    2913:	49 89 e4             	mov    %rsp,%r12
    2916:	48 83 ec 10          	sub    $0x10,%rsp
    291a:	48 83 e4 f0          	and    $0xfffffffffffffff0,%rsp
    291e:	48 c7 05 1f 10 75 00 	movq   $0x100000,0x75101f(%rip)        # 753948 <shmSize>
    2925:	00 00 10 00 
    2929:	48 c7 05 b4 b2 5f 00 	movq   $0x100000,0x5fb2b4(%rip)        # 5fdbe8 <shmSize2>
    2930:	00 00 10 00 
    2934:	48 8d 3d 4b 03 00 00 	lea    0x34b(%rip),%rdi        # 2c86 <.SHM_ENV_GCNT>
    293b:	e8 20 ef ff ff       	callq  1860 <getenv@plt>
    2940:	48 85 c0             	test   %rax,%rax
    2943:	0f 84 6a 01 00 00    	je     2ab3 <__afl_setup_abort>
    2949:	48 89 c7             	mov    %rax,%rdi
    294c:	e8 9f f2 ff ff       	callq  1bf0 <atoi@plt>
    2951:	48 31 d2             	xor    %rdx,%rdx
    2954:	48 31 f6             	xor    %rsi,%rsi
    2957:	48 89 c7             	mov    %rax,%rdi
    295a:	e8 71 f2 ff ff       	callq  1bd0 <shmat@plt>
    295f:	48 83 f8 ff          	cmp    $0xffffffffffffffff,%rax
    2963:	0f 84 4a 01 00 00    	je     2ab3 <__afl_setup_abort>
    2969:	48 89 05 c8 0f 75 00 	mov    %rax,0x750fc8(%rip)        # 753938 <shmptr_gcnt>
    2970:	48 8d 3d f6 02 00 00 	lea    0x2f6(%rip),%rdi        # 2c6d <.SHM_ENV_CMP>
    2977:	e8 e4 ee ff ff       	callq  1860 <getenv@plt>
    297c:	48 85 c0             	test   %rax,%rax
    297f:	0f 84 2e 01 00 00    	je     2ab3 <__afl_setup_abort>
    2985:	48 89 c7             	mov    %rax,%rdi
    2988:	e8 63 f2 ff ff       	callq  1bf0 <atoi@plt>
    298d:	48 31 d2             	xor    %rdx,%rdx
    2990:	48 31 f6             	xor    %rsi,%rsi
    2993:	48 89 c7             	mov    %rax,%rdi
    2996:	e8 35 f2 ff ff       	callq  1bd0 <shmat@plt>
    299b:	48 83 f8 ff          	cmp    $0xffffffffffffffff,%rax
    299f:	0f 84 0e 01 00 00    	je     2ab3 <__afl_setup_abort>
    29a5:	48 89 05 84 0f 75 00 	mov    %rax,0x750f84(%rip)        # 753930 <shmptr_cmp>
    29ac:	48 8d 3d c6 02 00 00 	lea    0x2c6(%rip),%rdi        # 2c79 <.SHM_ENV_EDGE>
    29b3:	e8 a8 ee ff ff       	callq  1860 <getenv@plt>
    29b8:	48 85 c0             	test   %rax,%rax
    29bb:	0f 84 f2 00 00 00    	je     2ab3 <__afl_setup_abort>
    29c1:	48 89 c7             	mov    %rax,%rdi
    29c4:	e8 27 f2 ff ff       	callq  1bf0 <atoi@plt>
    29c9:	48 31 d2             	xor    %rdx,%rdx
    29cc:	48 31 f6             	xor    %rsi,%rsi
    29cf:	48 89 c7             	mov    %rax,%rdi
    29d2:	e8 f9 f1 ff ff       	callq  1bd0 <shmat@plt>
    29d7:	48 83 f8 ff          	cmp    $0xffffffffffffffff,%rax
    29db:	0f 84 d2 00 00 00    	je     2ab3 <__afl_setup_abort>
    29e1:	48 89 05 20 0f 75 00 	mov    %rax,0x750f20(%rip)        # 753908 <shmptr_edge>

00000000000029e8 <__afl_forkserver>:
    29e8:	48 c7 c2 04 00 00 00 	mov    $0x4,%rdx
    29ef:	48 8d 35 ee af 5f 00 	lea    0x5fafee(%rip),%rsi        # 5fd9e4 <__afl_temp>
    29f6:	48 c7 c7 c5 00 00 00 	mov    $0xc5,%rdi
    29fd:	e8 ce ee ff ff       	callq  18d0 <write@plt>
    2a02:	48 83 f8 04          	cmp    $0x4,%rax
    2a06:	0f 85 78 01 00 00    	jne    2b84 <__afl_fork_resume>

0000000000002a0c <__afl_fork_wait_loop>:
    2a0c:	48 c7 c2 04 00 00 00 	mov    $0x4,%rdx
    2a13:	48 8d 35 ca af 5f 00 	lea    0x5fafca(%rip),%rsi        # 5fd9e4 <__afl_temp>
    2a1a:	48 c7 c7 c4 00 00 00 	mov    $0xc4,%rdi
    2a21:	e8 1a f0 ff ff       	callq  1a40 <read@plt>
    2a26:	48 83 f8 04          	cmp    $0x4,%rax
    2a2a:	75 70                	jne    2a9c <__afl_die>
    2a2c:	e8 1f f2 ff ff       	callq  1c50 <fork@plt>
    2a31:	48 83 f8 00          	cmp    $0x0,%rax
    2a35:	7c 65                	jl     2a9c <__afl_die>
    2a37:	0f 84 47 01 00 00    	je     2b84 <__afl_fork_resume>
    2a3d:	89 05 9d af 5f 00    	mov    %eax,0x5faf9d(%rip)        # 5fd9e0 <__afl_fork_pid>
    2a43:	48 c7 c2 04 00 00 00 	mov    $0x4,%rdx
    2a4a:	48 8d 35 8f af 5f 00 	lea    0x5faf8f(%rip),%rsi        # 5fd9e0 <__afl_fork_pid>
    2a51:	48 c7 c7 c5 00 00 00 	mov    $0xc5,%rdi
    2a58:	e8 73 ee ff ff       	callq  18d0 <write@plt>
    2a5d:	48 c7 c2 00 00 00 00 	mov    $0x0,%rdx
    2a64:	48 8d 35 79 af 5f 00 	lea    0x5faf79(%rip),%rsi        # 5fd9e4 <__afl_temp>
    2a6b:	48 8b 3d 6e af 5f 00 	mov    0x5faf6e(%rip),%rdi        # 5fd9e0 <__afl_fork_pid>
    2a72:	e8 09 f1 ff ff       	callq  1b80 <waitpid@plt>
    2a77:	48 83 f8 00          	cmp    $0x0,%rax
    2a7b:	7e 1f                	jle    2a9c <__afl_die>
    2a7d:	48 c7 c2 04 00 00 00 	mov    $0x4,%rdx
    2a84:	48 8d 35 59 af 5f 00 	lea    0x5faf59(%rip),%rsi        # 5fd9e4 <__afl_temp>
    2a8b:	48 c7 c7 c5 00 00 00 	mov    $0xc5,%rdi
    2a92:	e8 39 ee ff ff       	callq  18d0 <write@plt>
    2a97:	e9 70 ff ff ff       	jmpq   2a0c <__afl_fork_wait_loop>

0000000000002a9c <__afl_die>:
    2a9c:	48 8d 3d 27 02 00 00 	lea    0x227(%rip),%rdi        # 2cca <.serverDied>
    2aa3:	48 31 c0             	xor    %rax,%rax
    2aa6:	e8 e5 ee ff ff       	callq  1990 <printf@plt>
    2aab:	48 31 c0             	xor    %rax,%rax
    2aae:	e8 fd ed ff ff       	callq  18b0 <_exit@plt>

0000000000002ab3 <__afl_setup_abort>:
    2ab3:	4c 89 e4             	mov    %r12,%rsp
    2ab6:	41 5c                	pop    %r12
    2ab8:	48 8b 04 24          	mov    (%rsp),%rax
    2abc:	48 8b 4c 24 08       	mov    0x8(%rsp),%rcx
    2ac1:	48 8b 7c 24 10       	mov    0x10(%rsp),%rdi
    2ac6:	48 8b 74 24 20       	mov    0x20(%rsp),%rsi
    2acb:	4c 8b 44 24 28       	mov    0x28(%rsp),%r8
    2ad0:	4c 8b 4c 24 30       	mov    0x30(%rsp),%r9
    2ad5:	4c 8b 54 24 38       	mov    0x38(%rsp),%r10
    2ada:	4c 8b 5c 24 40       	mov    0x40(%rsp),%r11
    2adf:	f3 0f 7e 44 24 60    	movq   0x60(%rsp),%xmm0
    2ae5:	f3 0f 7e 4c 24 70    	movq   0x70(%rsp),%xmm1
    2aeb:	f3 0f 7e 94 24 80 00 	movq   0x80(%rsp),%xmm2
    2af2:	00 00 
    2af4:	f3 0f 7e 9c 24 90 00 	movq   0x90(%rsp),%xmm3
    2afb:	00 00 
    2afd:	f3 0f 7e a4 24 a0 00 	movq   0xa0(%rsp),%xmm4
    2b04:	00 00 
    2b06:	f3 0f 7e ac 24 b0 00 	movq   0xb0(%rsp),%xmm5
    2b0d:	00 00 
    2b0f:	f3 0f 7e b4 24 c0 00 	movq   0xc0(%rsp),%xmm6
    2b16:	00 00 
    2b18:	f3 0f 7e bc 24 d0 00 	movq   0xd0(%rsp),%xmm7
    2b1f:	00 00 
    2b21:	f3 44 0f 7e 84 24 e0 	movq   0xe0(%rsp),%xmm8
    2b28:	00 00 00 
    2b2b:	f3 44 0f 7e 8c 24 f0 	movq   0xf0(%rsp),%xmm9
    2b32:	00 00 00 
    2b35:	f3 44 0f 7e 94 24 00 	movq   0x100(%rsp),%xmm10
    2b3c:	01 00 00 
    2b3f:	f3 44 0f 7e 9c 24 10 	movq   0x110(%rsp),%xmm11
    2b46:	01 00 00 
    2b49:	f3 44 0f 7e a4 24 20 	movq   0x120(%rsp),%xmm12
    2b50:	01 00 00 
    2b53:	f3 44 0f 7e ac 24 30 	movq   0x130(%rsp),%xmm13
    2b5a:	01 00 00 
    2b5d:	f3 44 0f 7e b4 24 40 	movq   0x140(%rsp),%xmm14
    2b64:	01 00 00 
    2b67:	f3 44 0f 7e bc 24 50 	movq   0x150(%rsp),%xmm15
    2b6e:	01 00 00 
    2b71:	48 8b 94 24 60 01 00 	mov    0x160(%rsp),%rdx
    2b78:	00 
    2b79:	48 8d a4 24 68 01 00 	lea    0x168(%rsp),%rsp
    2b80:	00 
    2b81:	b0 7f                	mov    $0x7f,%al
    2b83:	c3                   	retq   

0000000000002b84 <__afl_fork_resume>:
    2b84:	48 c7 c7 c4 00 00 00 	mov    $0xc4,%rdi
    2b8b:	e8 80 ee ff ff       	callq  1a10 <close@plt>
    2b90:	48 c7 c7 c5 00 00 00 	mov    $0xc5,%rdi
    2b97:	e8 74 ee ff ff       	callq  1a10 <close@plt>
    2b9c:	4c 89 e4             	mov    %r12,%rsp
    2b9f:	41 5c                	pop    %r12
    2ba1:	48 8b 04 24          	mov    (%rsp),%rax
    2ba5:	48 8b 4c 24 08       	mov    0x8(%rsp),%rcx
    2baa:	48 8b 7c 24 10       	mov    0x10(%rsp),%rdi
    2baf:	48 8b 74 24 20       	mov    0x20(%rsp),%rsi
    2bb4:	4c 8b 44 24 28       	mov    0x28(%rsp),%r8
    2bb9:	4c 8b 4c 24 30       	mov    0x30(%rsp),%r9
    2bbe:	4c 8b 54 24 38       	mov    0x38(%rsp),%r10
    2bc3:	4c 8b 5c 24 40       	mov    0x40(%rsp),%r11
    2bc8:	f3 0f 7e 44 24 60    	movq   0x60(%rsp),%xmm0
    2bce:	f3 0f 7e 4c 24 70    	movq   0x70(%rsp),%xmm1
    2bd4:	f3 0f 7e 94 24 80 00 	movq   0x80(%rsp),%xmm2
    2bdb:	00 00 
    2bdd:	f3 0f 7e 9c 24 90 00 	movq   0x90(%rsp),%xmm3
    2be4:	00 00 
    2be6:	f3 0f 7e a4 24 a0 00 	movq   0xa0(%rsp),%xmm4
    2bed:	00 00 
    2bef:	f3 0f 7e ac 24 b0 00 	movq   0xb0(%rsp),%xmm5
    2bf6:	00 00 
    2bf8:	f3 0f 7e b4 24 c0 00 	movq   0xc0(%rsp),%xmm6
    2bff:	00 00 
    2c01:	f3 0f 7e bc 24 d0 00 	movq   0xd0(%rsp),%xmm7
    2c08:	00 00 
    2c0a:	f3 44 0f 7e 84 24 e0 	movq   0xe0(%rsp),%xmm8
    2c11:	00 00 00 
    2c14:	f3 44 0f 7e 8c 24 f0 	movq   0xf0(%rsp),%xmm9
    2c1b:	00 00 00 
    2c1e:	f3 44 0f 7e 94 24 00 	movq   0x100(%rsp),%xmm10
    2c25:	01 00 00 
    2c28:	f3 44 0f 7e 9c 24 10 	movq   0x110(%rsp),%xmm11
    2c2f:	01 00 00 
    2c32:	f3 44 0f 7e a4 24 20 	movq   0x120(%rsp),%xmm12
    2c39:	01 00 00 
    2c3c:	f3 44 0f 7e ac 24 30 	movq   0x130(%rsp),%xmm13
    2c43:	01 00 00 
    2c46:	f3 44 0f 7e b4 24 40 	movq   0x140(%rsp),%xmm14
    2c4d:	01 00 00 
    2c50:	f3 44 0f 7e bc 24 50 	movq   0x150(%rsp),%xmm15
    2c57:	01 00 00 
    2c5a:	48 8b 94 24 60 01 00 	mov    0x160(%rsp),%rdx
    2c61:	00 
    2c62:	48 8d a4 24 68 01 00 	lea    0x168(%rsp),%rsp
    2c69:	00 
    2c6a:	b0 00                	mov    $0x0,%al
    2c6c:	c3                   	retq   

0000000000002c6d <.SHM_ENV_CMP>:
    2c6d:	53                   	push   %rbx
    2c6e:	48                   	rex.W
    2c6f:	4d 5f                	rex.WRB pop %r15
    2c71:	45                   	rex.RB
    2c72:	4e 56                	rex.WRX push %rsi
    2c74:	5f                   	pop    %rdi
    2c75:	43                   	rex.XB
    2c76:	4d 50                	rex.WRB push %r8
	...

0000000000002c79 <.SHM_ENV_EDGE>:
    2c79:	53                   	push   %rbx
    2c7a:	48                   	rex.W
    2c7b:	4d 5f                	rex.WRB pop %r15
    2c7d:	45                   	rex.RB
    2c7e:	4e 56                	rex.WRX push %rsi
    2c80:	5f                   	pop    %rdi
    2c81:	45                   	rex.RB
    2c82:	44                   	rex.R
    2c83:	47                   	rex.RXB
    2c84:	45                   	rex.RB
	...

0000000000002c86 <.SHM_ENV_GCNT>:
    2c86:	53                   	push   %rbx
    2c87:	48                   	rex.W
    2c88:	4d 5f                	rex.WRB pop %r15
    2c8a:	45                   	rex.RB
    2c8b:	4e 56                	rex.WRX push %rsi
    2c8d:	5f                   	pop    %rdi
    2c8e:	47                   	rex.RXB
    2c8f:	43                   	rex.XB
    2c90:	4e 54                	rex.WRX push %rsp
	...

0000000000002c93 <.serverSetupError>:
    2c93:	20 53 65             	and    %dl,0x65(%rbx)
    2c96:	72 76                	jb     2d0e <_storeEdge+0x1e>
    2c98:	65 72 20             	gs jb  2cbb <.serverSetupError+0x28>
    2c9b:	53                   	push   %rbx
    2c9c:	65 74 75             	gs je  2d14 <_storeEdge+0x24>
    2c9f:	70 20                	jo     2cc1 <.serverSetupError+0x2e>
    2ca1:	45 72 72             	rex.RB jb 2d16 <_storeEdge+0x26>
    2ca4:	6f                   	outsl  %ds:(%rsi),(%dx)
    2ca5:	72 2c                	jb     2cd3 <.serverDied+0x9>
    2ca7:	20 63 6f             	and    %ah,0x6f(%rbx)
    2caa:	6e                   	outsb  %ds:(%rsi),(%dx)
    2cab:	74 69                	je     2d16 <_storeEdge+0x26>
    2cad:	6e                   	outsb  %ds:(%rsi),(%dx)
    2cae:	75 65                	jne    2d15 <_storeEdge+0x25>
    2cb0:	20 72 75             	and    %dh,0x75(%rdx)
    2cb3:	6e                   	outsb  %ds:(%rsi),(%dx)
    2cb4:	6e                   	outsb  %ds:(%rsi),(%dx)
    2cb5:	69 67 20 77 69 74 68 	imul   $0x68746977,0x20(%rdi),%esp
    2cbc:	6f                   	outsl  %ds:(%rsi),(%dx)
    2cbd:	75 74                	jne    2d33 <_storeEdge+0x43>
    2cbf:	20 73 65             	and    %dh,0x65(%rbx)
    2cc2:	72 76                	jb     2d3a <_caledgehash>
    2cc4:	65 72 20             	gs jb  2ce7 <.debug+0xa>
    2cc7:	0a 20                	or     (%rax),%ah
	...

0000000000002cca <.serverDied>:
    2cca:	20 53 65             	and    %dl,0x65(%rbx)
    2ccd:	72 76                	jb     2d45 <_caledgehash+0xb>
    2ccf:	65 72 20             	gs jb  2cf2 <_storeEdge+0x2>
    2cd2:	69 73 20 64 65 61 64 	imul   $0x64616564,0x20(%rbx),%esi
    2cd9:	20 0a                	and    %cl,(%rdx)
    2cdb:	20 00                	and    %al,(%rax)

0000000000002cdd <.debug>:
    2cdd:	64 65 62             	fs gs (bad) 
    2ce0:	75 67                	jne    2d49 <_caledgehash+0xf>
    2ce2:	20 6d 65             	and    %ch,0x65(%rbp)
    2ce5:	73 73                	jae    2d5a <_caledgehash+0x20>
    2ce7:	61                   	(bad)  
    2ce8:	67 65 3a 20          	cmp    %gs:(%eax),%ah
    2cec:	0a 20                	or     (%rax),%ah
    2cee:	00                   	.byte 0x0
    2cef:	90                   	nop

0000000000002cf0 <_storeEdge>:
    2cf0:	50                   	push   %rax
    2cf1:	53                   	push   %rbx
    2cf2:	51                   	push   %rcx
    2cf3:	52                   	push   %rdx
    2cf4:	48 83 3d 54 0c 75 00 	cmpq   $0x1,0x750c54(%rip)        # 753950 <cmpPassed>
    2cfb:	01 
    2cfc:	75 3c                	jne    2d3a <_caledgehash>
    2cfe:	48 c7 05 47 0c 75 00 	movq   $0x0,0x750c47(%rip)        # 753950 <cmpPassed>
    2d05:	00 00 00 00 
    2d09:	48 8b 05 18 af 5f 00 	mov    0x5faf18(%rip),%rax        # 5fdc28 <edgeCnt>
    2d10:	48 c1 e0 03          	shl    $0x3,%rax
    2d14:	48 3b 05 cd ae 5f 00 	cmp    0x5faecd(%rip),%rax        # 5fdbe8 <shmSize2>
    2d1b:	77 55                	ja     2d72 <_shm2Full>
    2d1d:	48 8b 1d ec 0b 75 00 	mov    0x750bec(%rip),%rbx        # 753910 <edgehash>
    2d24:	48 8b 15 dd 0b 75 00 	mov    0x750bdd(%rip),%rdx        # 753908 <shmptr_edge>
    2d2b:	48 8d 0c 10          	lea    (%rax,%rdx,1),%rcx
    2d2f:	48 89 19             	mov    %rbx,(%rcx)
    2d32:	48 83 05 ee ae 5f 00 	addq   $0x1,0x5faeee(%rip)        # 5fdc28 <edgeCnt>
    2d39:	01 

0000000000002d3a <_caledgehash>:
    2d3a:	48 8b 15 cf 0b 75 00 	mov    0x750bcf(%rip),%rdx        # 753910 <edgehash>
    2d41:	48 89 d0             	mov    %rdx,%rax
    2d44:	48 c1 e0 05          	shl    $0x5,%rax
    2d48:	48 01 c2             	add    %rax,%rdx
    2d4b:	48 8b 05 ee 0b 75 00 	mov    0x750bee(%rip),%rax        # 753940 <edgeId>
    2d52:	48 01 d0             	add    %rdx,%rax
    2d55:	48 89 05 b4 0b 75 00 	mov    %rax,0x750bb4(%rip)        # 753910 <edgehash>
    2d5c:	48 b8 ff ff ff ff 00 	movabs $0xffffffff,%rax
    2d63:	00 00 00 
    2d66:	48 21 05 a3 0b 75 00 	and    %rax,0x750ba3(%rip)        # 753910 <edgehash>
    2d6d:	5a                   	pop    %rdx
    2d6e:	59                   	pop    %rcx
    2d6f:	5b                   	pop    %rbx
    2d70:	58                   	pop    %rax
    2d71:	c3                   	retq   

0000000000002d72 <_shm2Full>:
    2d72:	48 c7 c0 0f 00 00 00 	mov    $0xf,%rax
    2d79:	5a                   	pop    %rdx
    2d7a:	59                   	pop    %rcx
    2d7b:	5b                   	pop    %rbx
    2d7c:	58                   	pop    %rax
    2d7d:	e8 2e eb ff ff       	callq  18b0 <_exit@plt>
    2d82:	66 0f 1f 44 00 00    	nopw   0x0(%rax,%rax,1)

0000000000002d88 <_storeDataFn>:
    2d88:	55                   	push   %rbp
    2d89:	48 89 e5             	mov    %rsp,%rbp
    2d8c:	50                   	push   %rax
    2d8d:	53                   	push   %rbx
    2d8e:	41 50                	push   %r8
    2d90:	41 51                	push   %r9
    2d92:	41 52                	push   %r10
    2d94:	48 8b 05 9d 0b 75 00 	mov    0x750b9d(%rip),%rax        # 753938 <shmptr_gcnt>
    2d9b:	48 8b 00             	mov    (%rax),%rax
    2d9e:	48 c1 e0 03          	shl    $0x3,%rax
    2da2:	48 83 c0 30          	add    $0x30,%rax
    2da6:	48 3b 05 9b 0b 75 00 	cmp    0x750b9b(%rip),%rax        # 753948 <shmSize>
    2dad:	0f 83 8f 01 00 00    	jae    2f42 <_shmFull>
    2db3:	48 83 3d 75 0b 75 00 	cmpq   $0x0,0x750b75(%rip)        # 753930 <shmptr_cmp>
    2dba:	00 
    2dbb:	0f 84 99 01 00 00    	je     2f5a <_shmUninitialize>
    2dc1:	48 c7 c3 00 00 00 00 	mov    $0x0,%rbx
    2dc8:	48 83 e8 30          	sub    $0x30,%rax
    2dcc:	48 c1 e8 03          	shr    $0x3,%rax

0000000000002dd0 <_storeloop>:
    2dd0:	49 89 c2             	mov    %rax,%r10
    2dd3:	49 c1 e2 03          	shl    $0x3,%r10
    2dd7:	4c 03 15 52 0b 75 00 	add    0x750b52(%rip),%r10        # 753930 <shmptr_cmp>
    2dde:	49 89 d9             	mov    %rbx,%r9
    2de1:	49 c1 e1 03          	shl    $0x3,%r9
    2de5:	4c 8d 05 04 ae 5f 00 	lea    0x5fae04(%rip),%r8        # 5fdbf0 <funcinptr>
    2dec:	4d 01 c1             	add    %r8,%r9
    2def:	4d 8b 01             	mov    (%r9),%r8
    2df2:	4d 89 02             	mov    %r8,(%r10)
    2df5:	48 83 fb 00          	cmp    $0x0,%rbx
    2df9:	75 07                	jne    2e02 <_no_get_cmpid>
    2dfb:	4c 89 05 26 0b 75 00 	mov    %r8,0x750b26(%rip)        # 753928 <cmpid>

0000000000002e02 <_no_get_cmpid>:
    2e02:	48 ff c0             	inc    %rax
    2e05:	48 ff c3             	inc    %rbx
    2e08:	48 83 fb 06          	cmp    $0x6,%rbx
    2e0c:	75 c2                	jne    2dd0 <_storeloop>
    2e0e:	48 8b 1d 23 0b 75 00 	mov    0x750b23(%rip),%rbx        # 753938 <shmptr_gcnt>
    2e15:	48 89 03             	mov    %rax,(%rbx)
    2e18:	48 8b 05 09 0b 75 00 	mov    0x750b09(%rip),%rax        # 753928 <cmpid>
    2e1f:	48 c1 e0 04          	shl    $0x4,%rax
    2e23:	48 89 c3             	mov    %rax,%rbx
    2e26:	48 83 c3 08          	add    $0x8,%rbx
    2e2a:	48 81 fb c0 5c 15 00 	cmp    $0x155cc0,%rbx
    2e31:	0f 83 17 01 00 00    	jae    2f4e <_cmpdictFull>
    2e37:	48 8d 1d 02 ae 5f 00 	lea    0x5fae02(%rip),%rbx        # 5fdc40 <cmpid_dict>
    2e3e:	48 01 d8             	add    %rbx,%rax
    2e41:	48 83 38 00          	cmpq   $0x0,(%rax)
    2e45:	0f 84 db 00 00 00    	je     2f26 <_insert_entry>
    2e4b:	49 c7 c0 00 00 00 00 	mov    $0x0,%r8

0000000000002e52 <_remove_repeated_cycle>:
    2e52:	4d 89 c1             	mov    %r8,%r9
    2e55:	4d 89 ca             	mov    %r9,%r10
    2e58:	49 c1 e1 02          	shl    $0x2,%r9
    2e5c:	4d 01 d1             	add    %r10,%r9
    2e5f:	4d 01 d1             	add    %r10,%r9
    2e62:	4c 8b 15 cf 0a 75 00 	mov    0x750acf(%rip),%r10        # 753938 <shmptr_gcnt>
    2e69:	4d 8b 12             	mov    (%r10),%r10
    2e6c:	4c 2b 10             	sub    (%rax),%r10
    2e6f:	4c 3b 10             	cmp    (%rax),%r10
    2e72:	0f 87 9f 00 00 00    	ja     2f17 <_no_remove_cycle>
    2e78:	4d 39 ca             	cmp    %r9,%r10
    2e7b:	76 67                	jbe    2ee4 <_remove_cycle>
    2e7d:	4d 89 c1             	mov    %r8,%r9
    2e80:	49 83 c1 01          	add    $0x1,%r9
    2e84:	4d 89 ca             	mov    %r9,%r10
    2e87:	49 c1 e1 02          	shl    $0x2,%r9
    2e8b:	4d 01 d1             	add    %r10,%r9
    2e8e:	4d 01 d1             	add    %r10,%r9
    2e91:	4c 8b 15 a0 0a 75 00 	mov    0x750aa0(%rip),%r10        # 753938 <shmptr_gcnt>
    2e98:	4d 8b 12             	mov    (%r10),%r10
    2e9b:	4d 29 ca             	sub    %r9,%r10
    2e9e:	49 c1 e2 03          	shl    $0x3,%r10
    2ea2:	4c 8b 0d 87 0a 75 00 	mov    0x750a87(%rip),%r9        # 753930 <shmptr_cmp>
    2ea9:	4d 01 d1             	add    %r10,%r9
    2eac:	49 8b 19             	mov    (%r9),%rbx
    2eaf:	4d 89 c1             	mov    %r8,%r9
    2eb2:	49 83 c1 01          	add    $0x1,%r9
    2eb6:	4d 89 ca             	mov    %r9,%r10
    2eb9:	49 c1 e1 02          	shl    $0x2,%r9
    2ebd:	4d 01 d1             	add    %r10,%r9
    2ec0:	4d 01 d1             	add    %r10,%r9
    2ec3:	4c 8b 10             	mov    (%rax),%r10
    2ec6:	4d 29 ca             	sub    %r9,%r10
    2ec9:	49 c1 e2 03          	shl    $0x3,%r10
    2ecd:	4c 8b 0d 5c 0a 75 00 	mov    0x750a5c(%rip),%r9        # 753930 <shmptr_cmp>
    2ed4:	4d 01 d1             	add    %r10,%r9
    2ed7:	49 3b 19             	cmp    (%r9),%rbx
    2eda:	75 3b                	jne    2f17 <_no_remove_cycle>
    2edc:	49 ff c0             	inc    %r8
    2edf:	e9 6e ff ff ff       	jmpq   2e52 <_remove_repeated_cycle>

0000000000002ee4 <_remove_cycle>:
    2ee4:	48 89 15 2d 0a 75 00 	mov    %rdx,0x750a2d(%rip)        # 753918 <tmpquadone>
    2eeb:	48 8b 10             	mov    (%rax),%rdx
    2eee:	48 8b 05 43 0a 75 00 	mov    0x750a43(%rip),%rax        # 753938 <shmptr_gcnt>
    2ef5:	48 89 10             	mov    %rdx,(%rax)
    2ef8:	89 d0                	mov    %edx,%eax
    2efa:	48 c1 ea 20          	shr    $0x20,%rdx
    2efe:	49 c7 c0 06 00 00 00 	mov    $0x6,%r8
    2f05:	49 f7 f0             	div    %r8
    2f08:	89 05 1a ad 5f 00    	mov    %eax,0x5fad1a(%rip)        # 5fdc28 <edgeCnt>
    2f0e:	48 8b 15 03 0a 75 00 	mov    0x750a03(%rip),%rdx        # 753918 <tmpquadone>
    2f15:	eb 1c                	jmp    2f33 <_skipstoredata>

0000000000002f17 <_no_remove_cycle>:
    2f17:	48 8b 1d 1a 0a 75 00 	mov    0x750a1a(%rip),%rbx        # 753938 <shmptr_gcnt>
    2f1e:	48 8b 1b             	mov    (%rbx),%rbx
    2f21:	48 89 18             	mov    %rbx,(%rax)
    2f24:	eb 0d                	jmp    2f33 <_skipstoredata>

0000000000002f26 <_insert_entry>:
    2f26:	48 8b 1d 0b 0a 75 00 	mov    0x750a0b(%rip),%rbx        # 753938 <shmptr_gcnt>
    2f2d:	48 8b 1b             	mov    (%rbx),%rbx
    2f30:	48 89 18             	mov    %rbx,(%rax)

0000000000002f33 <_skipstoredata>:
    2f33:	41 5a                	pop    %r10
    2f35:	41 59                	pop    %r9
    2f37:	41 58                	pop    %r8
    2f39:	5b                   	pop    %rbx
    2f3a:	58                   	pop    %rax
    2f3b:	48 89 ec             	mov    %rbp,%rsp
    2f3e:	5d                   	pop    %rbp
    2f3f:	c2 08 00             	retq   $0x8

0000000000002f42 <_shmFull>:
    2f42:	48 c7 c0 0f 00 00 00 	mov    $0xf,%rax
    2f49:	e8 62 e9 ff ff       	callq  18b0 <_exit@plt>

0000000000002f4e <_cmpdictFull>:
    2f4e:	48 c7 c0 0e 00 00 00 	mov    $0xe,%rax
    2f55:	e8 56 e9 ff ff       	callq  18b0 <_exit@plt>

0000000000002f5a <_shmUninitialize>:
    2f5a:	48 89 ec             	mov    %rbp,%rsp
    2f5d:	5d                   	pop    %rbp
    2f5e:	48 31 c0             	xor    %rax,%rax
    2f61:	c2 08 00             	retq   $0x8
    2f64:	0f 1f 40 00          	nopl   0x0(%rax)
    2f68:	9f                   	lahf   
    2f69:	0f 90 c0             	seto   %al
    2f6c:	0f 1f 40 00          	nopl   0x0(%rax)

0000000000002f70 <__afl_setup_first>:
    2f70:	48 8d a4 24 98 fe ff 	lea    -0x168(%rsp),%rsp
    2f77:	ff 
    2f78:	48 89 04 24          	mov    %rax,(%rsp)
    2f7c:	48 89 4c 24 08       	mov    %rcx,0x8(%rsp)
    2f81:	48 89 7c 24 10       	mov    %rdi,0x10(%rsp)
    2f86:	48 89 74 24 20       	mov    %rsi,0x20(%rsp)
    2f8b:	4c 89 44 24 28       	mov    %r8,0x28(%rsp)
    2f90:	4c 89 4c 24 30       	mov    %r9,0x30(%rsp)
    2f95:	4c 89 54 24 38       	mov    %r10,0x38(%rsp)
    2f9a:	4c 89 5c 24 40       	mov    %r11,0x40(%rsp)
    2f9f:	66 0f d6 44 24 60    	movq   %xmm0,0x60(%rsp)
    2fa5:	66 0f d6 4c 24 70    	movq   %xmm1,0x70(%rsp)
    2fab:	66 0f d6 94 24 80 00 	movq   %xmm2,0x80(%rsp)
    2fb2:	00 00 
    2fb4:	66 0f d6 9c 24 90 00 	movq   %xmm3,0x90(%rsp)
    2fbb:	00 00 
    2fbd:	66 0f d6 a4 24 a0 00 	movq   %xmm4,0xa0(%rsp)
    2fc4:	00 00 
    2fc6:	66 0f d6 ac 24 b0 00 	movq   %xmm5,0xb0(%rsp)
    2fcd:	00 00 
    2fcf:	66 0f d6 b4 24 c0 00 	movq   %xmm6,0xc0(%rsp)
    2fd6:	00 00 
    2fd8:	66 0f d6 bc 24 d0 00 	movq   %xmm7,0xd0(%rsp)
    2fdf:	00 00 
    2fe1:	66 44 0f d6 84 24 e0 	movq   %xmm8,0xe0(%rsp)
    2fe8:	00 00 00 
    2feb:	66 44 0f d6 8c 24 f0 	movq   %xmm9,0xf0(%rsp)
    2ff2:	00 00 00 
    2ff5:	66 44 0f d6 94 24 00 	movq   %xmm10,0x100(%rsp)
    2ffc:	01 00 00 
    2fff:	66 44 0f d6 9c 24 10 	movq   %xmm11,0x110(%rsp)
    3006:	01 00 00 
    3009:	66 44 0f d6 a4 24 20 	movq   %xmm12,0x120(%rsp)
    3010:	01 00 00 
    3013:	66 44 0f d6 ac 24 30 	movq   %xmm13,0x130(%rsp)
    301a:	01 00 00 
    301d:	66 44 0f d6 b4 24 40 	movq   %xmm14,0x140(%rsp)
    3024:	01 00 00 
    3027:	66 44 0f d6 bc 24 50 	movq   %xmm15,0x150(%rsp)
    302e:	01 00 00 
    3031:	48 89 94 24 60 01 00 	mov    %rdx,0x160(%rsp)
    3038:	00 
    3039:	41 54                	push   %r12
    303b:	49 89 e4             	mov    %rsp,%r12
    303e:	48 83 ec 10          	sub    $0x10,%rsp
    3042:	48 83 e4 f0          	and    $0xfffffffffffffff0,%rsp
    3046:	48 c7 05 f7 08 75 00 	movq   $0x100000,0x7508f7(%rip)        # 753948 <shmSize>
    304d:	00 00 10 00 
    3051:	48 c7 05 8c ab 5f 00 	movq   $0x100000,0x5fab8c(%rip)        # 5fdbe8 <shmSize2>
    3058:	00 00 10 00 
    305c:	48 8d 3d 4b 03 00 00 	lea    0x34b(%rip),%rdi        # 33ae <.SHM_ENV_GCNT>
    3063:	e8 f8 e7 ff ff       	callq  1860 <getenv@plt>
    3068:	48 85 c0             	test   %rax,%rax
    306b:	0f 84 6a 01 00 00    	je     31db <__afl_setup_abort>
    3071:	48 89 c7             	mov    %rax,%rdi
    3074:	e8 77 eb ff ff       	callq  1bf0 <atoi@plt>
    3079:	48 31 d2             	xor    %rdx,%rdx
    307c:	48 31 f6             	xor    %rsi,%rsi
    307f:	48 89 c7             	mov    %rax,%rdi
    3082:	e8 49 eb ff ff       	callq  1bd0 <shmat@plt>
    3087:	48 83 f8 ff          	cmp    $0xffffffffffffffff,%rax
    308b:	0f 84 4a 01 00 00    	je     31db <__afl_setup_abort>
    3091:	48 89 05 a0 08 75 00 	mov    %rax,0x7508a0(%rip)        # 753938 <shmptr_gcnt>
    3098:	48 8d 3d f6 02 00 00 	lea    0x2f6(%rip),%rdi        # 3395 <.SHM_ENV_CMP>
    309f:	e8 bc e7 ff ff       	callq  1860 <getenv@plt>
    30a4:	48 85 c0             	test   %rax,%rax
    30a7:	0f 84 2e 01 00 00    	je     31db <__afl_setup_abort>
    30ad:	48 89 c7             	mov    %rax,%rdi
    30b0:	e8 3b eb ff ff       	callq  1bf0 <atoi@plt>
    30b5:	48 31 d2             	xor    %rdx,%rdx
    30b8:	48 31 f6             	xor    %rsi,%rsi
    30bb:	48 89 c7             	mov    %rax,%rdi
    30be:	e8 0d eb ff ff       	callq  1bd0 <shmat@plt>
    30c3:	48 83 f8 ff          	cmp    $0xffffffffffffffff,%rax
    30c7:	0f 84 0e 01 00 00    	je     31db <__afl_setup_abort>
    30cd:	48 89 05 5c 08 75 00 	mov    %rax,0x75085c(%rip)        # 753930 <shmptr_cmp>
    30d4:	48 8d 3d c6 02 00 00 	lea    0x2c6(%rip),%rdi        # 33a1 <.SHM_ENV_EDGE>
    30db:	e8 80 e7 ff ff       	callq  1860 <getenv@plt>
    30e0:	48 85 c0             	test   %rax,%rax
    30e3:	0f 84 f2 00 00 00    	je     31db <__afl_setup_abort>
    30e9:	48 89 c7             	mov    %rax,%rdi
    30ec:	e8 ff ea ff ff       	callq  1bf0 <atoi@plt>
    30f1:	48 31 d2             	xor    %rdx,%rdx
    30f4:	48 31 f6             	xor    %rsi,%rsi
    30f7:	48 89 c7             	mov    %rax,%rdi
    30fa:	e8 d1 ea ff ff       	callq  1bd0 <shmat@plt>
    30ff:	48 83 f8 ff          	cmp    $0xffffffffffffffff,%rax
    3103:	0f 84 d2 00 00 00    	je     31db <__afl_setup_abort>
    3109:	48 89 05 f8 07 75 00 	mov    %rax,0x7507f8(%rip)        # 753908 <shmptr_edge>

0000000000003110 <__afl_forkserver>:
    3110:	48 c7 c2 04 00 00 00 	mov    $0x4,%rdx
    3117:	48 8d 35 ce a8 5f 00 	lea    0x5fa8ce(%rip),%rsi        # 5fd9ec <__afl_temp>
    311e:	48 c7 c7 c5 00 00 00 	mov    $0xc5,%rdi
    3125:	e8 a6 e7 ff ff       	callq  18d0 <write@plt>
    312a:	48 83 f8 04          	cmp    $0x4,%rax
    312e:	0f 85 78 01 00 00    	jne    32ac <__afl_fork_resume>

0000000000003134 <__afl_fork_wait_loop>:
    3134:	48 c7 c2 04 00 00 00 	mov    $0x4,%rdx
    313b:	48 8d 35 aa a8 5f 00 	lea    0x5fa8aa(%rip),%rsi        # 5fd9ec <__afl_temp>
    3142:	48 c7 c7 c4 00 00 00 	mov    $0xc4,%rdi
    3149:	e8 f2 e8 ff ff       	callq  1a40 <read@plt>
    314e:	48 83 f8 04          	cmp    $0x4,%rax
    3152:	75 70                	jne    31c4 <__afl_die>
    3154:	e8 f7 ea ff ff       	callq  1c50 <fork@plt>
    3159:	48 83 f8 00          	cmp    $0x0,%rax
    315d:	7c 65                	jl     31c4 <__afl_die>
    315f:	0f 84 47 01 00 00    	je     32ac <__afl_fork_resume>
    3165:	89 05 7d a8 5f 00    	mov    %eax,0x5fa87d(%rip)        # 5fd9e8 <__afl_fork_pid>
    316b:	48 c7 c2 04 00 00 00 	mov    $0x4,%rdx
    3172:	48 8d 35 6f a8 5f 00 	lea    0x5fa86f(%rip),%rsi        # 5fd9e8 <__afl_fork_pid>
    3179:	48 c7 c7 c5 00 00 00 	mov    $0xc5,%rdi
    3180:	e8 4b e7 ff ff       	callq  18d0 <write@plt>
    3185:	48 c7 c2 00 00 00 00 	mov    $0x0,%rdx
    318c:	48 8d 35 59 a8 5f 00 	lea    0x5fa859(%rip),%rsi        # 5fd9ec <__afl_temp>
    3193:	48 8b 3d 4e a8 5f 00 	mov    0x5fa84e(%rip),%rdi        # 5fd9e8 <__afl_fork_pid>
    319a:	e8 e1 e9 ff ff       	callq  1b80 <waitpid@plt>
    319f:	48 83 f8 00          	cmp    $0x0,%rax
    31a3:	7e 1f                	jle    31c4 <__afl_die>
    31a5:	48 c7 c2 04 00 00 00 	mov    $0x4,%rdx
    31ac:	48 8d 35 39 a8 5f 00 	lea    0x5fa839(%rip),%rsi        # 5fd9ec <__afl_temp>
    31b3:	48 c7 c7 c5 00 00 00 	mov    $0xc5,%rdi
    31ba:	e8 11 e7 ff ff       	callq  18d0 <write@plt>
    31bf:	e9 70 ff ff ff       	jmpq   3134 <__afl_fork_wait_loop>

00000000000031c4 <__afl_die>:
    31c4:	48 8d 3d 27 02 00 00 	lea    0x227(%rip),%rdi        # 33f2 <.serverDied>
    31cb:	48 31 c0             	xor    %rax,%rax
    31ce:	e8 bd e7 ff ff       	callq  1990 <printf@plt>
    31d3:	48 31 c0             	xor    %rax,%rax
    31d6:	e8 d5 e6 ff ff       	callq  18b0 <_exit@plt>

00000000000031db <__afl_setup_abort>:
    31db:	4c 89 e4             	mov    %r12,%rsp
    31de:	41 5c                	pop    %r12
    31e0:	48 8b 04 24          	mov    (%rsp),%rax
    31e4:	48 8b 4c 24 08       	mov    0x8(%rsp),%rcx
    31e9:	48 8b 7c 24 10       	mov    0x10(%rsp),%rdi
    31ee:	48 8b 74 24 20       	mov    0x20(%rsp),%rsi
    31f3:	4c 8b 44 24 28       	mov    0x28(%rsp),%r8
    31f8:	4c 8b 4c 24 30       	mov    0x30(%rsp),%r9
    31fd:	4c 8b 54 24 38       	mov    0x38(%rsp),%r10
    3202:	4c 8b 5c 24 40       	mov    0x40(%rsp),%r11
    3207:	f3 0f 7e 44 24 60    	movq   0x60(%rsp),%xmm0
    320d:	f3 0f 7e 4c 24 70    	movq   0x70(%rsp),%xmm1
    3213:	f3 0f 7e 94 24 80 00 	movq   0x80(%rsp),%xmm2
    321a:	00 00 
    321c:	f3 0f 7e 9c 24 90 00 	movq   0x90(%rsp),%xmm3
    3223:	00 00 
    3225:	f3 0f 7e a4 24 a0 00 	movq   0xa0(%rsp),%xmm4
    322c:	00 00 
    322e:	f3 0f 7e ac 24 b0 00 	movq   0xb0(%rsp),%xmm5
    3235:	00 00 
    3237:	f3 0f 7e b4 24 c0 00 	movq   0xc0(%rsp),%xmm6
    323e:	00 00 
    3240:	f3 0f 7e bc 24 d0 00 	movq   0xd0(%rsp),%xmm7
    3247:	00 00 
    3249:	f3 44 0f 7e 84 24 e0 	movq   0xe0(%rsp),%xmm8
    3250:	00 00 00 
    3253:	f3 44 0f 7e 8c 24 f0 	movq   0xf0(%rsp),%xmm9
    325a:	00 00 00 
    325d:	f3 44 0f 7e 94 24 00 	movq   0x100(%rsp),%xmm10
    3264:	01 00 00 
    3267:	f3 44 0f 7e 9c 24 10 	movq   0x110(%rsp),%xmm11
    326e:	01 00 00 
    3271:	f3 44 0f 7e a4 24 20 	movq   0x120(%rsp),%xmm12
    3278:	01 00 00 
    327b:	f3 44 0f 7e ac 24 30 	movq   0x130(%rsp),%xmm13
    3282:	01 00 00 
    3285:	f3 44 0f 7e b4 24 40 	movq   0x140(%rsp),%xmm14
    328c:	01 00 00 
    328f:	f3 44 0f 7e bc 24 50 	movq   0x150(%rsp),%xmm15
    3296:	01 00 00 
    3299:	48 8b 94 24 60 01 00 	mov    0x160(%rsp),%rdx
    32a0:	00 
    32a1:	48 8d a4 24 68 01 00 	lea    0x168(%rsp),%rsp
    32a8:	00 
    32a9:	b0 7f                	mov    $0x7f,%al
    32ab:	c3                   	retq   

00000000000032ac <__afl_fork_resume>:
    32ac:	48 c7 c7 c4 00 00 00 	mov    $0xc4,%rdi
    32b3:	e8 58 e7 ff ff       	callq  1a10 <close@plt>
    32b8:	48 c7 c7 c5 00 00 00 	mov    $0xc5,%rdi
    32bf:	e8 4c e7 ff ff       	callq  1a10 <close@plt>
    32c4:	4c 89 e4             	mov    %r12,%rsp
    32c7:	41 5c                	pop    %r12
    32c9:	48 8b 04 24          	mov    (%rsp),%rax
    32cd:	48 8b 4c 24 08       	mov    0x8(%rsp),%rcx
    32d2:	48 8b 7c 24 10       	mov    0x10(%rsp),%rdi
    32d7:	48 8b 74 24 20       	mov    0x20(%rsp),%rsi
    32dc:	4c 8b 44 24 28       	mov    0x28(%rsp),%r8
    32e1:	4c 8b 4c 24 30       	mov    0x30(%rsp),%r9
    32e6:	4c 8b 54 24 38       	mov    0x38(%rsp),%r10
    32eb:	4c 8b 5c 24 40       	mov    0x40(%rsp),%r11
    32f0:	f3 0f 7e 44 24 60    	movq   0x60(%rsp),%xmm0
    32f6:	f3 0f 7e 4c 24 70    	movq   0x70(%rsp),%xmm1
    32fc:	f3 0f 7e 94 24 80 00 	movq   0x80(%rsp),%xmm2
    3303:	00 00 
    3305:	f3 0f 7e 9c 24 90 00 	movq   0x90(%rsp),%xmm3
    330c:	00 00 
    330e:	f3 0f 7e a4 24 a0 00 	movq   0xa0(%rsp),%xmm4
    3315:	00 00 
    3317:	f3 0f 7e ac 24 b0 00 	movq   0xb0(%rsp),%xmm5
    331e:	00 00 
    3320:	f3 0f 7e b4 24 c0 00 	movq   0xc0(%rsp),%xmm6
    3327:	00 00 
    3329:	f3 0f 7e bc 24 d0 00 	movq   0xd0(%rsp),%xmm7
    3330:	00 00 
    3332:	f3 44 0f 7e 84 24 e0 	movq   0xe0(%rsp),%xmm8
    3339:	00 00 00 
    333c:	f3 44 0f 7e 8c 24 f0 	movq   0xf0(%rsp),%xmm9
    3343:	00 00 00 
    3346:	f3 44 0f 7e 94 24 00 	movq   0x100(%rsp),%xmm10
    334d:	01 00 00 
    3350:	f3 44 0f 7e 9c 24 10 	movq   0x110(%rsp),%xmm11
    3357:	01 00 00 
    335a:	f3 44 0f 7e a4 24 20 	movq   0x120(%rsp),%xmm12
    3361:	01 00 00 
    3364:	f3 44 0f 7e ac 24 30 	movq   0x130(%rsp),%xmm13
    336b:	01 00 00 
    336e:	f3 44 0f 7e b4 24 40 	movq   0x140(%rsp),%xmm14
    3375:	01 00 00 
    3378:	f3 44 0f 7e bc 24 50 	movq   0x150(%rsp),%xmm15
    337f:	01 00 00 
    3382:	48 8b 94 24 60 01 00 	mov    0x160(%rsp),%rdx
    3389:	00 
    338a:	48 8d a4 24 68 01 00 	lea    0x168(%rsp),%rsp
    3391:	00 
    3392:	b0 00                	mov    $0x0,%al
    3394:	c3                   	retq   

0000000000003395 <.SHM_ENV_CMP>:
    3395:	53                   	push   %rbx
    3396:	48                   	rex.W
    3397:	4d 5f                	rex.WRB pop %r15
    3399:	45                   	rex.RB
    339a:	4e 56                	rex.WRX push %rsi
    339c:	5f                   	pop    %rdi
    339d:	43                   	rex.XB
    339e:	4d 50                	rex.WRB push %r8
	...

00000000000033a1 <.SHM_ENV_EDGE>:
    33a1:	53                   	push   %rbx
    33a2:	48                   	rex.W
    33a3:	4d 5f                	rex.WRB pop %r15
    33a5:	45                   	rex.RB
    33a6:	4e 56                	rex.WRX push %rsi
    33a8:	5f                   	pop    %rdi
    33a9:	45                   	rex.RB
    33aa:	44                   	rex.R
    33ab:	47                   	rex.RXB
    33ac:	45                   	rex.RB
	...

00000000000033ae <.SHM_ENV_GCNT>:
    33ae:	53                   	push   %rbx
    33af:	48                   	rex.W
    33b0:	4d 5f                	rex.WRB pop %r15
    33b2:	45                   	rex.RB
    33b3:	4e 56                	rex.WRX push %rsi
    33b5:	5f                   	pop    %rdi
    33b6:	47                   	rex.RXB
    33b7:	43                   	rex.XB
    33b8:	4e 54                	rex.WRX push %rsp
	...

00000000000033bb <.serverSetupError>:
    33bb:	20 53 65             	and    %dl,0x65(%rbx)
    33be:	72 76                	jb     3436 <_storeEdge+0x1e>
    33c0:	65 72 20             	gs jb  33e3 <.serverSetupError+0x28>
    33c3:	53                   	push   %rbx
    33c4:	65 74 75             	gs je  343c <_storeEdge+0x24>
    33c7:	70 20                	jo     33e9 <.serverSetupError+0x2e>
    33c9:	45 72 72             	rex.RB jb 343e <_storeEdge+0x26>
    33cc:	6f                   	outsl  %ds:(%rsi),(%dx)
    33cd:	72 2c                	jb     33fb <.serverDied+0x9>
    33cf:	20 63 6f             	and    %ah,0x6f(%rbx)
    33d2:	6e                   	outsb  %ds:(%rsi),(%dx)
    33d3:	74 69                	je     343e <_storeEdge+0x26>
    33d5:	6e                   	outsb  %ds:(%rsi),(%dx)
    33d6:	75 65                	jne    343d <_storeEdge+0x25>
    33d8:	20 72 75             	and    %dh,0x75(%rdx)
    33db:	6e                   	outsb  %ds:(%rsi),(%dx)
    33dc:	6e                   	outsb  %ds:(%rsi),(%dx)
    33dd:	69 67 20 77 69 74 68 	imul   $0x68746977,0x20(%rdi),%esp
    33e4:	6f                   	outsl  %ds:(%rsi),(%dx)
    33e5:	75 74                	jne    345b <_storeEdge+0x43>
    33e7:	20 73 65             	and    %dh,0x65(%rbx)
    33ea:	72 76                	jb     3462 <_caledgehash>
    33ec:	65 72 20             	gs jb  340f <.debug+0xa>
    33ef:	0a 20                	or     (%rax),%ah
	...

00000000000033f2 <.serverDied>:
    33f2:	20 53 65             	and    %dl,0x65(%rbx)
    33f5:	72 76                	jb     346d <_caledgehash+0xb>
    33f7:	65 72 20             	gs jb  341a <_storeEdge+0x2>
    33fa:	69 73 20 64 65 61 64 	imul   $0x64616564,0x20(%rbx),%esi
    3401:	20 0a                	and    %cl,(%rdx)
    3403:	20 00                	and    %al,(%rax)

0000000000003405 <.debug>:
    3405:	64 65 62             	fs gs (bad) 
    3408:	75 67                	jne    3471 <_caledgehash+0xf>
    340a:	20 6d 65             	and    %ch,0x65(%rbp)
    340d:	73 73                	jae    3482 <_caledgehash+0x20>
    340f:	61                   	(bad)  
    3410:	67 65 3a 20          	cmp    %gs:(%eax),%ah
    3414:	0a 20                	or     (%rax),%ah
    3416:	00                   	.byte 0x0
    3417:	90                   	nop

0000000000003418 <_storeEdge>:
    3418:	50                   	push   %rax
    3419:	53                   	push   %rbx
    341a:	51                   	push   %rcx
    341b:	52                   	push   %rdx
    341c:	48 83 3d 2c 05 75 00 	cmpq   $0x1,0x75052c(%rip)        # 753950 <cmpPassed>
    3423:	01 
    3424:	75 3c                	jne    3462 <_caledgehash>
    3426:	48 c7 05 1f 05 75 00 	movq   $0x0,0x75051f(%rip)        # 753950 <cmpPassed>
    342d:	00 00 00 00 
    3431:	48 8b 05 f0 a7 5f 00 	mov    0x5fa7f0(%rip),%rax        # 5fdc28 <edgeCnt>
    3438:	48 c1 e0 03          	shl    $0x3,%rax
    343c:	48 3b 05 a5 a7 5f 00 	cmp    0x5fa7a5(%rip),%rax        # 5fdbe8 <shmSize2>
    3443:	77 55                	ja     349a <_shm2Full>
    3445:	48 8b 1d c4 04 75 00 	mov    0x7504c4(%rip),%rbx        # 753910 <edgehash>
    344c:	48 8b 15 b5 04 75 00 	mov    0x7504b5(%rip),%rdx        # 753908 <shmptr_edge>
    3453:	48 8d 0c 10          	lea    (%rax,%rdx,1),%rcx
    3457:	48 89 19             	mov    %rbx,(%rcx)
    345a:	48 83 05 c6 a7 5f 00 	addq   $0x1,0x5fa7c6(%rip)        # 5fdc28 <edgeCnt>
    3461:	01 

0000000000003462 <_caledgehash>:
    3462:	48 8b 15 a7 04 75 00 	mov    0x7504a7(%rip),%rdx        # 753910 <edgehash>
    3469:	48 89 d0             	mov    %rdx,%rax
    346c:	48 c1 e0 05          	shl    $0x5,%rax
    3470:	48 01 c2             	add    %rax,%rdx
    3473:	48 8b 05 c6 04 75 00 	mov    0x7504c6(%rip),%rax        # 753940 <edgeId>
    347a:	48 01 d0             	add    %rdx,%rax
    347d:	48 89 05 8c 04 75 00 	mov    %rax,0x75048c(%rip)        # 753910 <edgehash>
    3484:	48 b8 ff ff ff ff 00 	movabs $0xffffffff,%rax
    348b:	00 00 00 
    348e:	48 21 05 7b 04 75 00 	and    %rax,0x75047b(%rip)        # 753910 <edgehash>
    3495:	5a                   	pop    %rdx
    3496:	59                   	pop    %rcx
    3497:	5b                   	pop    %rbx
    3498:	58                   	pop    %rax
    3499:	c3                   	retq   

000000000000349a <_shm2Full>:
    349a:	48 c7 c0 0f 00 00 00 	mov    $0xf,%rax
    34a1:	5a                   	pop    %rdx
    34a2:	59                   	pop    %rcx
    34a3:	5b                   	pop    %rbx
    34a4:	58                   	pop    %rax
    34a5:	e8 06 e4 ff ff       	callq  18b0 <_exit@plt>
    34aa:	66 0f 1f 44 00 00    	nopw   0x0(%rax,%rax,1)

00000000000034b0 <_storeDataFn>:
    34b0:	55                   	push   %rbp
    34b1:	48 89 e5             	mov    %rsp,%rbp
    34b4:	50                   	push   %rax
    34b5:	53                   	push   %rbx
    34b6:	41 50                	push   %r8
    34b8:	41 51                	push   %r9
    34ba:	41 52                	push   %r10
    34bc:	48 8b 05 75 04 75 00 	mov    0x750475(%rip),%rax        # 753938 <shmptr_gcnt>
    34c3:	48 8b 00             	mov    (%rax),%rax
    34c6:	48 c1 e0 03          	shl    $0x3,%rax
    34ca:	48 83 c0 30          	add    $0x30,%rax
    34ce:	48 3b 05 73 04 75 00 	cmp    0x750473(%rip),%rax        # 753948 <shmSize>
    34d5:	0f 83 8f 01 00 00    	jae    366a <_shmFull>
    34db:	48 83 3d 4d 04 75 00 	cmpq   $0x0,0x75044d(%rip)        # 753930 <shmptr_cmp>
    34e2:	00 
    34e3:	0f 84 99 01 00 00    	je     3682 <_shmUninitialize>
    34e9:	48 c7 c3 00 00 00 00 	mov    $0x0,%rbx
    34f0:	48 83 e8 30          	sub    $0x30,%rax
    34f4:	48 c1 e8 03          	shr    $0x3,%rax

00000000000034f8 <_storeloop>:
    34f8:	49 89 c2             	mov    %rax,%r10
    34fb:	49 c1 e2 03          	shl    $0x3,%r10
    34ff:	4c 03 15 2a 04 75 00 	add    0x75042a(%rip),%r10        # 753930 <shmptr_cmp>
    3506:	49 89 d9             	mov    %rbx,%r9
    3509:	49 c1 e1 03          	shl    $0x3,%r9
    350d:	4c 8d 05 dc a6 5f 00 	lea    0x5fa6dc(%rip),%r8        # 5fdbf0 <funcinptr>
    3514:	4d 01 c1             	add    %r8,%r9
    3517:	4d 8b 01             	mov    (%r9),%r8
    351a:	4d 89 02             	mov    %r8,(%r10)
    351d:	48 83 fb 00          	cmp    $0x0,%rbx
    3521:	75 07                	jne    352a <_no_get_cmpid>
    3523:	4c 89 05 fe 03 75 00 	mov    %r8,0x7503fe(%rip)        # 753928 <cmpid>

000000000000352a <_no_get_cmpid>:
    352a:	48 ff c0             	inc    %rax
    352d:	48 ff c3             	inc    %rbx
    3530:	48 83 fb 06          	cmp    $0x6,%rbx
    3534:	75 c2                	jne    34f8 <_storeloop>
    3536:	48 8b 1d fb 03 75 00 	mov    0x7503fb(%rip),%rbx        # 753938 <shmptr_gcnt>
    353d:	48 89 03             	mov    %rax,(%rbx)
    3540:	48 8b 05 e1 03 75 00 	mov    0x7503e1(%rip),%rax        # 753928 <cmpid>
    3547:	48 c1 e0 04          	shl    $0x4,%rax
    354b:	48 89 c3             	mov    %rax,%rbx
    354e:	48 83 c3 08          	add    $0x8,%rbx
    3552:	48 81 fb c0 5c 15 00 	cmp    $0x155cc0,%rbx
    3559:	0f 83 17 01 00 00    	jae    3676 <_cmpdictFull>
    355f:	48 8d 1d da a6 5f 00 	lea    0x5fa6da(%rip),%rbx        # 5fdc40 <cmpid_dict>
    3566:	48 01 d8             	add    %rbx,%rax
    3569:	48 83 38 00          	cmpq   $0x0,(%rax)
    356d:	0f 84 db 00 00 00    	je     364e <_insert_entry>
    3573:	49 c7 c0 00 00 00 00 	mov    $0x0,%r8

000000000000357a <_remove_repeated_cycle>:
    357a:	4d 89 c1             	mov    %r8,%r9
    357d:	4d 89 ca             	mov    %r9,%r10
    3580:	49 c1 e1 02          	shl    $0x2,%r9
    3584:	4d 01 d1             	add    %r10,%r9
    3587:	4d 01 d1             	add    %r10,%r9
    358a:	4c 8b 15 a7 03 75 00 	mov    0x7503a7(%rip),%r10        # 753938 <shmptr_gcnt>
    3591:	4d 8b 12             	mov    (%r10),%r10
    3594:	4c 2b 10             	sub    (%rax),%r10
    3597:	4c 3b 10             	cmp    (%rax),%r10
    359a:	0f 87 9f 00 00 00    	ja     363f <_no_remove_cycle>
    35a0:	4d 39 ca             	cmp    %r9,%r10
    35a3:	76 67                	jbe    360c <_remove_cycle>
    35a5:	4d 89 c1             	mov    %r8,%r9
    35a8:	49 83 c1 01          	add    $0x1,%r9
    35ac:	4d 89 ca             	mov    %r9,%r10
    35af:	49 c1 e1 02          	shl    $0x2,%r9
    35b3:	4d 01 d1             	add    %r10,%r9
    35b6:	4d 01 d1             	add    %r10,%r9
    35b9:	4c 8b 15 78 03 75 00 	mov    0x750378(%rip),%r10        # 753938 <shmptr_gcnt>
    35c0:	4d 8b 12             	mov    (%r10),%r10
    35c3:	4d 29 ca             	sub    %r9,%r10
    35c6:	49 c1 e2 03          	shl    $0x3,%r10
    35ca:	4c 8b 0d 5f 03 75 00 	mov    0x75035f(%rip),%r9        # 753930 <shmptr_cmp>
    35d1:	4d 01 d1             	add    %r10,%r9
    35d4:	49 8b 19             	mov    (%r9),%rbx
    35d7:	4d 89 c1             	mov    %r8,%r9
    35da:	49 83 c1 01          	add    $0x1,%r9
    35de:	4d 89 ca             	mov    %r9,%r10
    35e1:	49 c1 e1 02          	shl    $0x2,%r9
    35e5:	4d 01 d1             	add    %r10,%r9
    35e8:	4d 01 d1             	add    %r10,%r9
    35eb:	4c 8b 10             	mov    (%rax),%r10
    35ee:	4d 29 ca             	sub    %r9,%r10
    35f1:	49 c1 e2 03          	shl    $0x3,%r10
    35f5:	4c 8b 0d 34 03 75 00 	mov    0x750334(%rip),%r9        # 753930 <shmptr_cmp>
    35fc:	4d 01 d1             	add    %r10,%r9
    35ff:	49 3b 19             	cmp    (%r9),%rbx
    3602:	75 3b                	jne    363f <_no_remove_cycle>
    3604:	49 ff c0             	inc    %r8
    3607:	e9 6e ff ff ff       	jmpq   357a <_remove_repeated_cycle>

000000000000360c <_remove_cycle>:
    360c:	48 89 15 05 03 75 00 	mov    %rdx,0x750305(%rip)        # 753918 <tmpquadone>
    3613:	48 8b 10             	mov    (%rax),%rdx
    3616:	48 8b 05 1b 03 75 00 	mov    0x75031b(%rip),%rax        # 753938 <shmptr_gcnt>
    361d:	48 89 10             	mov    %rdx,(%rax)
    3620:	89 d0                	mov    %edx,%eax
    3622:	48 c1 ea 20          	shr    $0x20,%rdx
    3626:	49 c7 c0 06 00 00 00 	mov    $0x6,%r8
    362d:	49 f7 f0             	div    %r8
    3630:	89 05 f2 a5 5f 00    	mov    %eax,0x5fa5f2(%rip)        # 5fdc28 <edgeCnt>
    3636:	48 8b 15 db 02 75 00 	mov    0x7502db(%rip),%rdx        # 753918 <tmpquadone>
    363d:	eb 1c                	jmp    365b <_skipstoredata>

000000000000363f <_no_remove_cycle>:
    363f:	48 8b 1d f2 02 75 00 	mov    0x7502f2(%rip),%rbx        # 753938 <shmptr_gcnt>
    3646:	48 8b 1b             	mov    (%rbx),%rbx
    3649:	48 89 18             	mov    %rbx,(%rax)
    364c:	eb 0d                	jmp    365b <_skipstoredata>

000000000000364e <_insert_entry>:
    364e:	48 8b 1d e3 02 75 00 	mov    0x7502e3(%rip),%rbx        # 753938 <shmptr_gcnt>
    3655:	48 8b 1b             	mov    (%rbx),%rbx
    3658:	48 89 18             	mov    %rbx,(%rax)

000000000000365b <_skipstoredata>:
    365b:	41 5a                	pop    %r10
    365d:	41 59                	pop    %r9
    365f:	41 58                	pop    %r8
    3661:	5b                   	pop    %rbx
    3662:	58                   	pop    %rax
    3663:	48 89 ec             	mov    %rbp,%rsp
    3666:	5d                   	pop    %rbp
    3667:	c2 08 00             	retq   $0x8

000000000000366a <_shmFull>:
    366a:	48 c7 c0 0f 00 00 00 	mov    $0xf,%rax
    3671:	e8 3a e2 ff ff       	callq  18b0 <_exit@plt>

0000000000003676 <_cmpdictFull>:
    3676:	48 c7 c0 0e 00 00 00 	mov    $0xe,%rax
    367d:	e8 2e e2 ff ff       	callq  18b0 <_exit@plt>

0000000000003682 <_shmUninitialize>:
    3682:	48 89 ec             	mov    %rbp,%rsp
    3685:	5d                   	pop    %rbp
    3686:	48 31 c0             	xor    %rax,%rax
    3689:	c2 08 00             	retq   $0x8
    368c:	0f 1f 40 00          	nopl   0x0(%rax)
    3690:	9f                   	lahf   
    3691:	0f 90 c0             	seto   %al
    3694:	0f 1f 40 00          	nopl   0x0(%rax)

0000000000003698 <__afl_setup_first>:
    3698:	48 8d a4 24 98 fe ff 	lea    -0x168(%rsp),%rsp
    369f:	ff 
    36a0:	48 89 04 24          	mov    %rax,(%rsp)
    36a4:	48 89 4c 24 08       	mov    %rcx,0x8(%rsp)
    36a9:	48 89 7c 24 10       	mov    %rdi,0x10(%rsp)
    36ae:	48 89 74 24 20       	mov    %rsi,0x20(%rsp)
    36b3:	4c 89 44 24 28       	mov    %r8,0x28(%rsp)
    36b8:	4c 89 4c 24 30       	mov    %r9,0x30(%rsp)
    36bd:	4c 89 54 24 38       	mov    %r10,0x38(%rsp)
    36c2:	4c 89 5c 24 40       	mov    %r11,0x40(%rsp)
    36c7:	66 0f d6 44 24 60    	movq   %xmm0,0x60(%rsp)
    36cd:	66 0f d6 4c 24 70    	movq   %xmm1,0x70(%rsp)
    36d3:	66 0f d6 94 24 80 00 	movq   %xmm2,0x80(%rsp)
    36da:	00 00 
    36dc:	66 0f d6 9c 24 90 00 	movq   %xmm3,0x90(%rsp)
    36e3:	00 00 
    36e5:	66 0f d6 a4 24 a0 00 	movq   %xmm4,0xa0(%rsp)
    36ec:	00 00 
    36ee:	66 0f d6 ac 24 b0 00 	movq   %xmm5,0xb0(%rsp)
    36f5:	00 00 
    36f7:	66 0f d6 b4 24 c0 00 	movq   %xmm6,0xc0(%rsp)
    36fe:	00 00 
    3700:	66 0f d6 bc 24 d0 00 	movq   %xmm7,0xd0(%rsp)
    3707:	00 00 
    3709:	66 44 0f d6 84 24 e0 	movq   %xmm8,0xe0(%rsp)
    3710:	00 00 00 
    3713:	66 44 0f d6 8c 24 f0 	movq   %xmm9,0xf0(%rsp)
    371a:	00 00 00 
    371d:	66 44 0f d6 94 24 00 	movq   %xmm10,0x100(%rsp)
    3724:	01 00 00 
    3727:	66 44 0f d6 9c 24 10 	movq   %xmm11,0x110(%rsp)
    372e:	01 00 00 
    3731:	66 44 0f d6 a4 24 20 	movq   %xmm12,0x120(%rsp)
    3738:	01 00 00 
    373b:	66 44 0f d6 ac 24 30 	movq   %xmm13,0x130(%rsp)
    3742:	01 00 00 
    3745:	66 44 0f d6 b4 24 40 	movq   %xmm14,0x140(%rsp)
    374c:	01 00 00 
    374f:	66 44 0f d6 bc 24 50 	movq   %xmm15,0x150(%rsp)
    3756:	01 00 00 
    3759:	48 89 94 24 60 01 00 	mov    %rdx,0x160(%rsp)
    3760:	00 
    3761:	41 54                	push   %r12
    3763:	49 89 e4             	mov    %rsp,%r12
    3766:	48 83 ec 10          	sub    $0x10,%rsp
    376a:	48 83 e4 f0          	and    $0xfffffffffffffff0,%rsp
    376e:	48 c7 05 cf 01 75 00 	movq   $0x100000,0x7501cf(%rip)        # 753948 <shmSize>
    3775:	00 00 10 00 
    3779:	48 c7 05 64 a4 5f 00 	movq   $0x100000,0x5fa464(%rip)        # 5fdbe8 <shmSize2>
    3780:	00 00 10 00 
    3784:	48 8d 3d 4b 03 00 00 	lea    0x34b(%rip),%rdi        # 3ad6 <.SHM_ENV_GCNT>
    378b:	e8 d0 e0 ff ff       	callq  1860 <getenv@plt>
    3790:	48 85 c0             	test   %rax,%rax
    3793:	0f 84 6a 01 00 00    	je     3903 <__afl_setup_abort>
    3799:	48 89 c7             	mov    %rax,%rdi
    379c:	e8 4f e4 ff ff       	callq  1bf0 <atoi@plt>
    37a1:	48 31 d2             	xor    %rdx,%rdx
    37a4:	48 31 f6             	xor    %rsi,%rsi
    37a7:	48 89 c7             	mov    %rax,%rdi
    37aa:	e8 21 e4 ff ff       	callq  1bd0 <shmat@plt>
    37af:	48 83 f8 ff          	cmp    $0xffffffffffffffff,%rax
    37b3:	0f 84 4a 01 00 00    	je     3903 <__afl_setup_abort>
    37b9:	48 89 05 78 01 75 00 	mov    %rax,0x750178(%rip)        # 753938 <shmptr_gcnt>
    37c0:	48 8d 3d f6 02 00 00 	lea    0x2f6(%rip),%rdi        # 3abd <.SHM_ENV_CMP>
    37c7:	e8 94 e0 ff ff       	callq  1860 <getenv@plt>
    37cc:	48 85 c0             	test   %rax,%rax
    37cf:	0f 84 2e 01 00 00    	je     3903 <__afl_setup_abort>
    37d5:	48 89 c7             	mov    %rax,%rdi
    37d8:	e8 13 e4 ff ff       	callq  1bf0 <atoi@plt>
    37dd:	48 31 d2             	xor    %rdx,%rdx
    37e0:	48 31 f6             	xor    %rsi,%rsi
    37e3:	48 89 c7             	mov    %rax,%rdi
    37e6:	e8 e5 e3 ff ff       	callq  1bd0 <shmat@plt>
    37eb:	48 83 f8 ff          	cmp    $0xffffffffffffffff,%rax
    37ef:	0f 84 0e 01 00 00    	je     3903 <__afl_setup_abort>
    37f5:	48 89 05 34 01 75 00 	mov    %rax,0x750134(%rip)        # 753930 <shmptr_cmp>
    37fc:	48 8d 3d c6 02 00 00 	lea    0x2c6(%rip),%rdi        # 3ac9 <.SHM_ENV_EDGE>
    3803:	e8 58 e0 ff ff       	callq  1860 <getenv@plt>
    3808:	48 85 c0             	test   %rax,%rax
    380b:	0f 84 f2 00 00 00    	je     3903 <__afl_setup_abort>
    3811:	48 89 c7             	mov    %rax,%rdi
    3814:	e8 d7 e3 ff ff       	callq  1bf0 <atoi@plt>
    3819:	48 31 d2             	xor    %rdx,%rdx
    381c:	48 31 f6             	xor    %rsi,%rsi
    381f:	48 89 c7             	mov    %rax,%rdi
    3822:	e8 a9 e3 ff ff       	callq  1bd0 <shmat@plt>
    3827:	48 83 f8 ff          	cmp    $0xffffffffffffffff,%rax
    382b:	0f 84 d2 00 00 00    	je     3903 <__afl_setup_abort>
    3831:	48 89 05 d0 00 75 00 	mov    %rax,0x7500d0(%rip)        # 753908 <shmptr_edge>

0000000000003838 <__afl_forkserver>:
    3838:	48 c7 c2 04 00 00 00 	mov    $0x4,%rdx
    383f:	48 8d 35 ae a1 5f 00 	lea    0x5fa1ae(%rip),%rsi        # 5fd9f4 <__afl_temp>
    3846:	48 c7 c7 c5 00 00 00 	mov    $0xc5,%rdi
    384d:	e8 7e e0 ff ff       	callq  18d0 <write@plt>
    3852:	48 83 f8 04          	cmp    $0x4,%rax
    3856:	0f 85 78 01 00 00    	jne    39d4 <__afl_fork_resume>

000000000000385c <__afl_fork_wait_loop>:
    385c:	48 c7 c2 04 00 00 00 	mov    $0x4,%rdx
    3863:	48 8d 35 8a a1 5f 00 	lea    0x5fa18a(%rip),%rsi        # 5fd9f4 <__afl_temp>
    386a:	48 c7 c7 c4 00 00 00 	mov    $0xc4,%rdi
    3871:	e8 ca e1 ff ff       	callq  1a40 <read@plt>
    3876:	48 83 f8 04          	cmp    $0x4,%rax
    387a:	75 70                	jne    38ec <__afl_die>
    387c:	e8 cf e3 ff ff       	callq  1c50 <fork@plt>
    3881:	48 83 f8 00          	cmp    $0x0,%rax
    3885:	7c 65                	jl     38ec <__afl_die>
    3887:	0f 84 47 01 00 00    	je     39d4 <__afl_fork_resume>
    388d:	89 05 5d a1 5f 00    	mov    %eax,0x5fa15d(%rip)        # 5fd9f0 <__afl_fork_pid>
    3893:	48 c7 c2 04 00 00 00 	mov    $0x4,%rdx
    389a:	48 8d 35 4f a1 5f 00 	lea    0x5fa14f(%rip),%rsi        # 5fd9f0 <__afl_fork_pid>
    38a1:	48 c7 c7 c5 00 00 00 	mov    $0xc5,%rdi
    38a8:	e8 23 e0 ff ff       	callq  18d0 <write@plt>
    38ad:	48 c7 c2 00 00 00 00 	mov    $0x0,%rdx
    38b4:	48 8d 35 39 a1 5f 00 	lea    0x5fa139(%rip),%rsi        # 5fd9f4 <__afl_temp>
    38bb:	48 8b 3d 2e a1 5f 00 	mov    0x5fa12e(%rip),%rdi        # 5fd9f0 <__afl_fork_pid>
    38c2:	e8 b9 e2 ff ff       	callq  1b80 <waitpid@plt>
    38c7:	48 83 f8 00          	cmp    $0x0,%rax
    38cb:	7e 1f                	jle    38ec <__afl_die>
    38cd:	48 c7 c2 04 00 00 00 	mov    $0x4,%rdx
    38d4:	48 8d 35 19 a1 5f 00 	lea    0x5fa119(%rip),%rsi        # 5fd9f4 <__afl_temp>
    38db:	48 c7 c7 c5 00 00 00 	mov    $0xc5,%rdi
    38e2:	e8 e9 df ff ff       	callq  18d0 <write@plt>
    38e7:	e9 70 ff ff ff       	jmpq   385c <__afl_fork_wait_loop>

00000000000038ec <__afl_die>:
    38ec:	48 8d 3d 27 02 00 00 	lea    0x227(%rip),%rdi        # 3b1a <.serverDied>
    38f3:	48 31 c0             	xor    %rax,%rax
    38f6:	e8 95 e0 ff ff       	callq  1990 <printf@plt>
    38fb:	48 31 c0             	xor    %rax,%rax
    38fe:	e8 ad df ff ff       	callq  18b0 <_exit@plt>

0000000000003903 <__afl_setup_abort>:
    3903:	4c 89 e4             	mov    %r12,%rsp
    3906:	41 5c                	pop    %r12
    3908:	48 8b 04 24          	mov    (%rsp),%rax
    390c:	48 8b 4c 24 08       	mov    0x8(%rsp),%rcx
    3911:	48 8b 7c 24 10       	mov    0x10(%rsp),%rdi
    3916:	48 8b 74 24 20       	mov    0x20(%rsp),%rsi
    391b:	4c 8b 44 24 28       	mov    0x28(%rsp),%r8
    3920:	4c 8b 4c 24 30       	mov    0x30(%rsp),%r9
    3925:	4c 8b 54 24 38       	mov    0x38(%rsp),%r10
    392a:	4c 8b 5c 24 40       	mov    0x40(%rsp),%r11
    392f:	f3 0f 7e 44 24 60    	movq   0x60(%rsp),%xmm0
    3935:	f3 0f 7e 4c 24 70    	movq   0x70(%rsp),%xmm1
    393b:	f3 0f 7e 94 24 80 00 	movq   0x80(%rsp),%xmm2
    3942:	00 00 
    3944:	f3 0f 7e 9c 24 90 00 	movq   0x90(%rsp),%xmm3
    394b:	00 00 
    394d:	f3 0f 7e a4 24 a0 00 	movq   0xa0(%rsp),%xmm4
    3954:	00 00 
    3956:	f3 0f 7e ac 24 b0 00 	movq   0xb0(%rsp),%xmm5
    395d:	00 00 
    395f:	f3 0f 7e b4 24 c0 00 	movq   0xc0(%rsp),%xmm6
    3966:	00 00 
    3968:	f3 0f 7e bc 24 d0 00 	movq   0xd0(%rsp),%xmm7
    396f:	00 00 
    3971:	f3 44 0f 7e 84 24 e0 	movq   0xe0(%rsp),%xmm8
    3978:	00 00 00 
    397b:	f3 44 0f 7e 8c 24 f0 	movq   0xf0(%rsp),%xmm9
    3982:	00 00 00 
    3985:	f3 44 0f 7e 94 24 00 	movq   0x100(%rsp),%xmm10
    398c:	01 00 00 
    398f:	f3 44 0f 7e 9c 24 10 	movq   0x110(%rsp),%xmm11
    3996:	01 00 00 
    3999:	f3 44 0f 7e a4 24 20 	movq   0x120(%rsp),%xmm12
    39a0:	01 00 00 
    39a3:	f3 44 0f 7e ac 24 30 	movq   0x130(%rsp),%xmm13
    39aa:	01 00 00 
    39ad:	f3 44 0f 7e b4 24 40 	movq   0x140(%rsp),%xmm14
    39b4:	01 00 00 
    39b7:	f3 44 0f 7e bc 24 50 	movq   0x150(%rsp),%xmm15
    39be:	01 00 00 
    39c1:	48 8b 94 24 60 01 00 	mov    0x160(%rsp),%rdx
    39c8:	00 
    39c9:	48 8d a4 24 68 01 00 	lea    0x168(%rsp),%rsp
    39d0:	00 
    39d1:	b0 7f                	mov    $0x7f,%al
    39d3:	c3                   	retq   

00000000000039d4 <__afl_fork_resume>:
    39d4:	48 c7 c7 c4 00 00 00 	mov    $0xc4,%rdi
    39db:	e8 30 e0 ff ff       	callq  1a10 <close@plt>
    39e0:	48 c7 c7 c5 00 00 00 	mov    $0xc5,%rdi
    39e7:	e8 24 e0 ff ff       	callq  1a10 <close@plt>
    39ec:	4c 89 e4             	mov    %r12,%rsp
    39ef:	41 5c                	pop    %r12
    39f1:	48 8b 04 24          	mov    (%rsp),%rax
    39f5:	48 8b 4c 24 08       	mov    0x8(%rsp),%rcx
    39fa:	48 8b 7c 24 10       	mov    0x10(%rsp),%rdi
    39ff:	48 8b 74 24 20       	mov    0x20(%rsp),%rsi
    3a04:	4c 8b 44 24 28       	mov    0x28(%rsp),%r8
    3a09:	4c 8b 4c 24 30       	mov    0x30(%rsp),%r9
    3a0e:	4c 8b 54 24 38       	mov    0x38(%rsp),%r10
    3a13:	4c 8b 5c 24 40       	mov    0x40(%rsp),%r11
    3a18:	f3 0f 7e 44 24 60    	movq   0x60(%rsp),%xmm0
    3a1e:	f3 0f 7e 4c 24 70    	movq   0x70(%rsp),%xmm1
    3a24:	f3 0f 7e 94 24 80 00 	movq   0x80(%rsp),%xmm2
    3a2b:	00 00 
    3a2d:	f3 0f 7e 9c 24 90 00 	movq   0x90(%rsp),%xmm3
    3a34:	00 00 
    3a36:	f3 0f 7e a4 24 a0 00 	movq   0xa0(%rsp),%xmm4
    3a3d:	00 00 
    3a3f:	f3 0f 7e ac 24 b0 00 	movq   0xb0(%rsp),%xmm5
    3a46:	00 00 
    3a48:	f3 0f 7e b4 24 c0 00 	movq   0xc0(%rsp),%xmm6
    3a4f:	00 00 
    3a51:	f3 0f 7e bc 24 d0 00 	movq   0xd0(%rsp),%xmm7
    3a58:	00 00 
    3a5a:	f3 44 0f 7e 84 24 e0 	movq   0xe0(%rsp),%xmm8
    3a61:	00 00 00 
    3a64:	f3 44 0f 7e 8c 24 f0 	movq   0xf0(%rsp),%xmm9
    3a6b:	00 00 00 
    3a6e:	f3 44 0f 7e 94 24 00 	movq   0x100(%rsp),%xmm10
    3a75:	01 00 00 
    3a78:	f3 44 0f 7e 9c 24 10 	movq   0x110(%rsp),%xmm11
    3a7f:	01 00 00 
    3a82:	f3 44 0f 7e a4 24 20 	movq   0x120(%rsp),%xmm12
    3a89:	01 00 00 
    3a8c:	f3 44 0f 7e ac 24 30 	movq   0x130(%rsp),%xmm13
    3a93:	01 00 00 
    3a96:	f3 44 0f 7e b4 24 40 	movq   0x140(%rsp),%xmm14
    3a9d:	01 00 00 
    3aa0:	f3 44 0f 7e bc 24 50 	movq   0x150(%rsp),%xmm15
    3aa7:	01 00 00 
    3aaa:	48 8b 94 24 60 01 00 	mov    0x160(%rsp),%rdx
    3ab1:	00 
    3ab2:	48 8d a4 24 68 01 00 	lea    0x168(%rsp),%rsp
    3ab9:	00 
    3aba:	b0 00                	mov    $0x0,%al
    3abc:	c3                   	retq   

0000000000003abd <.SHM_ENV_CMP>:
    3abd:	53                   	push   %rbx
    3abe:	48                   	rex.W
    3abf:	4d 5f                	rex.WRB pop %r15
    3ac1:	45                   	rex.RB
    3ac2:	4e 56                	rex.WRX push %rsi
    3ac4:	5f                   	pop    %rdi
    3ac5:	43                   	rex.XB
    3ac6:	4d 50                	rex.WRB push %r8
	...

0000000000003ac9 <.SHM_ENV_EDGE>:
    3ac9:	53                   	push   %rbx
    3aca:	48                   	rex.W
    3acb:	4d 5f                	rex.WRB pop %r15
    3acd:	45                   	rex.RB
    3ace:	4e 56                	rex.WRX push %rsi
    3ad0:	5f                   	pop    %rdi
    3ad1:	45                   	rex.RB
    3ad2:	44                   	rex.R
    3ad3:	47                   	rex.RXB
    3ad4:	45                   	rex.RB
	...

0000000000003ad6 <.SHM_ENV_GCNT>:
    3ad6:	53                   	push   %rbx
    3ad7:	48                   	rex.W
    3ad8:	4d 5f                	rex.WRB pop %r15
    3ada:	45                   	rex.RB
    3adb:	4e 56                	rex.WRX push %rsi
    3add:	5f                   	pop    %rdi
    3ade:	47                   	rex.RXB
    3adf:	43                   	rex.XB
    3ae0:	4e 54                	rex.WRX push %rsp
	...

0000000000003ae3 <.serverSetupError>:
    3ae3:	20 53 65             	and    %dl,0x65(%rbx)
    3ae6:	72 76                	jb     3b5e <_storeEdge+0x1e>
    3ae8:	65 72 20             	gs jb  3b0b <.serverSetupError+0x28>
    3aeb:	53                   	push   %rbx
    3aec:	65 74 75             	gs je  3b64 <_storeEdge+0x24>
    3aef:	70 20                	jo     3b11 <.serverSetupError+0x2e>
    3af1:	45 72 72             	rex.RB jb 3b66 <_storeEdge+0x26>
    3af4:	6f                   	outsl  %ds:(%rsi),(%dx)
    3af5:	72 2c                	jb     3b23 <.serverDied+0x9>
    3af7:	20 63 6f             	and    %ah,0x6f(%rbx)
    3afa:	6e                   	outsb  %ds:(%rsi),(%dx)
    3afb:	74 69                	je     3b66 <_storeEdge+0x26>
    3afd:	6e                   	outsb  %ds:(%rsi),(%dx)
    3afe:	75 65                	jne    3b65 <_storeEdge+0x25>
    3b00:	20 72 75             	and    %dh,0x75(%rdx)
    3b03:	6e                   	outsb  %ds:(%rsi),(%dx)
    3b04:	6e                   	outsb  %ds:(%rsi),(%dx)
    3b05:	69 67 20 77 69 74 68 	imul   $0x68746977,0x20(%rdi),%esp
    3b0c:	6f                   	outsl  %ds:(%rsi),(%dx)
    3b0d:	75 74                	jne    3b83 <_storeEdge+0x43>
    3b0f:	20 73 65             	and    %dh,0x65(%rbx)
    3b12:	72 76                	jb     3b8a <_caledgehash>
    3b14:	65 72 20             	gs jb  3b37 <.debug+0xa>
    3b17:	0a 20                	or     (%rax),%ah
	...

0000000000003b1a <.serverDied>:
    3b1a:	20 53 65             	and    %dl,0x65(%rbx)
    3b1d:	72 76                	jb     3b95 <_caledgehash+0xb>
    3b1f:	65 72 20             	gs jb  3b42 <_storeEdge+0x2>
    3b22:	69 73 20 64 65 61 64 	imul   $0x64616564,0x20(%rbx),%esi
    3b29:	20 0a                	and    %cl,(%rdx)
    3b2b:	20 00                	and    %al,(%rax)

0000000000003b2d <.debug>:
    3b2d:	64 65 62             	fs gs (bad) 
    3b30:	75 67                	jne    3b99 <_caledgehash+0xf>
    3b32:	20 6d 65             	and    %ch,0x65(%rbp)
    3b35:	73 73                	jae    3baa <_caledgehash+0x20>
    3b37:	61                   	(bad)  
    3b38:	67 65 3a 20          	cmp    %gs:(%eax),%ah
    3b3c:	0a 20                	or     (%rax),%ah
    3b3e:	00                   	.byte 0x0
    3b3f:	90                   	nop

0000000000003b40 <_storeEdge>:
    3b40:	50                   	push   %rax
    3b41:	53                   	push   %rbx
    3b42:	51                   	push   %rcx
    3b43:	52                   	push   %rdx
    3b44:	48 83 3d 04 fe 74 00 	cmpq   $0x1,0x74fe04(%rip)        # 753950 <cmpPassed>
    3b4b:	01 
    3b4c:	75 3c                	jne    3b8a <_caledgehash>
    3b4e:	48 c7 05 f7 fd 74 00 	movq   $0x0,0x74fdf7(%rip)        # 753950 <cmpPassed>
    3b55:	00 00 00 00 
    3b59:	48 8b 05 c8 a0 5f 00 	mov    0x5fa0c8(%rip),%rax        # 5fdc28 <edgeCnt>
    3b60:	48 c1 e0 03          	shl    $0x3,%rax
    3b64:	48 3b 05 7d a0 5f 00 	cmp    0x5fa07d(%rip),%rax        # 5fdbe8 <shmSize2>
    3b6b:	77 55                	ja     3bc2 <_shm2Full>
    3b6d:	48 8b 1d 9c fd 74 00 	mov    0x74fd9c(%rip),%rbx        # 753910 <edgehash>
    3b74:	48 8b 15 8d fd 74 00 	mov    0x74fd8d(%rip),%rdx        # 753908 <shmptr_edge>
    3b7b:	48 8d 0c 10          	lea    (%rax,%rdx,1),%rcx
    3b7f:	48 89 19             	mov    %rbx,(%rcx)
    3b82:	48 83 05 9e a0 5f 00 	addq   $0x1,0x5fa09e(%rip)        # 5fdc28 <edgeCnt>
    3b89:	01 

0000000000003b8a <_caledgehash>:
    3b8a:	48 8b 15 7f fd 74 00 	mov    0x74fd7f(%rip),%rdx        # 753910 <edgehash>
    3b91:	48 89 d0             	mov    %rdx,%rax
    3b94:	48 c1 e0 05          	shl    $0x5,%rax
    3b98:	48 01 c2             	add    %rax,%rdx
    3b9b:	48 8b 05 9e fd 74 00 	mov    0x74fd9e(%rip),%rax        # 753940 <edgeId>
    3ba2:	48 01 d0             	add    %rdx,%rax
    3ba5:	48 89 05 64 fd 74 00 	mov    %rax,0x74fd64(%rip)        # 753910 <edgehash>
    3bac:	48 b8 ff ff ff ff 00 	movabs $0xffffffff,%rax
    3bb3:	00 00 00 
    3bb6:	48 21 05 53 fd 74 00 	and    %rax,0x74fd53(%rip)        # 753910 <edgehash>
    3bbd:	5a                   	pop    %rdx
    3bbe:	59                   	pop    %rcx
    3bbf:	5b                   	pop    %rbx
    3bc0:	58                   	pop    %rax
    3bc1:	c3                   	retq   

0000000000003bc2 <_shm2Full>:
    3bc2:	48 c7 c0 0f 00 00 00 	mov    $0xf,%rax
    3bc9:	5a                   	pop    %rdx
    3bca:	59                   	pop    %rcx
    3bcb:	5b                   	pop    %rbx
    3bcc:	58                   	pop    %rax
    3bcd:	e8 de dc ff ff       	callq  18b0 <_exit@plt>
    3bd2:	66 0f 1f 44 00 00    	nopw   0x0(%rax,%rax,1)

0000000000003bd8 <_storeDataFn>:
    3bd8:	55                   	push   %rbp
    3bd9:	48 89 e5             	mov    %rsp,%rbp
    3bdc:	50                   	push   %rax
    3bdd:	53                   	push   %rbx
    3bde:	41 50                	push   %r8
    3be0:	41 51                	push   %r9
    3be2:	41 52                	push   %r10
    3be4:	48 8b 05 4d fd 74 00 	mov    0x74fd4d(%rip),%rax        # 753938 <shmptr_gcnt>
    3beb:	48 8b 00             	mov    (%rax),%rax
    3bee:	48 c1 e0 03          	shl    $0x3,%rax
    3bf2:	48 83 c0 30          	add    $0x30,%rax
    3bf6:	48 3b 05 4b fd 74 00 	cmp    0x74fd4b(%rip),%rax        # 753948 <shmSize>
    3bfd:	0f 83 8f 01 00 00    	jae    3d92 <_shmFull>
    3c03:	48 83 3d 25 fd 74 00 	cmpq   $0x0,0x74fd25(%rip)        # 753930 <shmptr_cmp>
    3c0a:	00 
    3c0b:	0f 84 99 01 00 00    	je     3daa <_shmUninitialize>
    3c11:	48 c7 c3 00 00 00 00 	mov    $0x0,%rbx
    3c18:	48 83 e8 30          	sub    $0x30,%rax
    3c1c:	48 c1 e8 03          	shr    $0x3,%rax

0000000000003c20 <_storeloop>:
    3c20:	49 89 c2             	mov    %rax,%r10
    3c23:	49 c1 e2 03          	shl    $0x3,%r10
    3c27:	4c 03 15 02 fd 74 00 	add    0x74fd02(%rip),%r10        # 753930 <shmptr_cmp>
    3c2e:	49 89 d9             	mov    %rbx,%r9
    3c31:	49 c1 e1 03          	shl    $0x3,%r9
    3c35:	4c 8d 05 b4 9f 5f 00 	lea    0x5f9fb4(%rip),%r8        # 5fdbf0 <funcinptr>
    3c3c:	4d 01 c1             	add    %r8,%r9
    3c3f:	4d 8b 01             	mov    (%r9),%r8
    3c42:	4d 89 02             	mov    %r8,(%r10)
    3c45:	48 83 fb 00          	cmp    $0x0,%rbx
    3c49:	75 07                	jne    3c52 <_no_get_cmpid>
    3c4b:	4c 89 05 d6 fc 74 00 	mov    %r8,0x74fcd6(%rip)        # 753928 <cmpid>

0000000000003c52 <_no_get_cmpid>:
    3c52:	48 ff c0             	inc    %rax
    3c55:	48 ff c3             	inc    %rbx
    3c58:	48 83 fb 06          	cmp    $0x6,%rbx
    3c5c:	75 c2                	jne    3c20 <_storeloop>
    3c5e:	48 8b 1d d3 fc 74 00 	mov    0x74fcd3(%rip),%rbx        # 753938 <shmptr_gcnt>
    3c65:	48 89 03             	mov    %rax,(%rbx)
    3c68:	48 8b 05 b9 fc 74 00 	mov    0x74fcb9(%rip),%rax        # 753928 <cmpid>
    3c6f:	48 c1 e0 04          	shl    $0x4,%rax
    3c73:	48 89 c3             	mov    %rax,%rbx
    3c76:	48 83 c3 08          	add    $0x8,%rbx
    3c7a:	48 81 fb c0 5c 15 00 	cmp    $0x155cc0,%rbx
    3c81:	0f 83 17 01 00 00    	jae    3d9e <_cmpdictFull>
    3c87:	48 8d 1d b2 9f 5f 00 	lea    0x5f9fb2(%rip),%rbx        # 5fdc40 <cmpid_dict>
    3c8e:	48 01 d8             	add    %rbx,%rax
    3c91:	48 83 38 00          	cmpq   $0x0,(%rax)
    3c95:	0f 84 db 00 00 00    	je     3d76 <_insert_entry>
    3c9b:	49 c7 c0 00 00 00 00 	mov    $0x0,%r8

0000000000003ca2 <_remove_repeated_cycle>:
    3ca2:	4d 89 c1             	mov    %r8,%r9
    3ca5:	4d 89 ca             	mov    %r9,%r10
    3ca8:	49 c1 e1 02          	shl    $0x2,%r9
    3cac:	4d 01 d1             	add    %r10,%r9
    3caf:	4d 01 d1             	add    %r10,%r9
    3cb2:	4c 8b 15 7f fc 74 00 	mov    0x74fc7f(%rip),%r10        # 753938 <shmptr_gcnt>
    3cb9:	4d 8b 12             	mov    (%r10),%r10
    3cbc:	4c 2b 10             	sub    (%rax),%r10
    3cbf:	4c 3b 10             	cmp    (%rax),%r10
    3cc2:	0f 87 9f 00 00 00    	ja     3d67 <_no_remove_cycle>
    3cc8:	4d 39 ca             	cmp    %r9,%r10
    3ccb:	76 67                	jbe    3d34 <_remove_cycle>
    3ccd:	4d 89 c1             	mov    %r8,%r9
    3cd0:	49 83 c1 01          	add    $0x1,%r9
    3cd4:	4d 89 ca             	mov    %r9,%r10
    3cd7:	49 c1 e1 02          	shl    $0x2,%r9
    3cdb:	4d 01 d1             	add    %r10,%r9
    3cde:	4d 01 d1             	add    %r10,%r9
    3ce1:	4c 8b 15 50 fc 74 00 	mov    0x74fc50(%rip),%r10        # 753938 <shmptr_gcnt>
    3ce8:	4d 8b 12             	mov    (%r10),%r10
    3ceb:	4d 29 ca             	sub    %r9,%r10
    3cee:	49 c1 e2 03          	shl    $0x3,%r10
    3cf2:	4c 8b 0d 37 fc 74 00 	mov    0x74fc37(%rip),%r9        # 753930 <shmptr_cmp>
    3cf9:	4d 01 d1             	add    %r10,%r9
    3cfc:	49 8b 19             	mov    (%r9),%rbx
    3cff:	4d 89 c1             	mov    %r8,%r9
    3d02:	49 83 c1 01          	add    $0x1,%r9
    3d06:	4d 89 ca             	mov    %r9,%r10
    3d09:	49 c1 e1 02          	shl    $0x2,%r9
    3d0d:	4d 01 d1             	add    %r10,%r9
    3d10:	4d 01 d1             	add    %r10,%r9
    3d13:	4c 8b 10             	mov    (%rax),%r10
    3d16:	4d 29 ca             	sub    %r9,%r10
    3d19:	49 c1 e2 03          	shl    $0x3,%r10
    3d1d:	4c 8b 0d 0c fc 74 00 	mov    0x74fc0c(%rip),%r9        # 753930 <shmptr_cmp>
    3d24:	4d 01 d1             	add    %r10,%r9
    3d27:	49 3b 19             	cmp    (%r9),%rbx
    3d2a:	75 3b                	jne    3d67 <_no_remove_cycle>
    3d2c:	49 ff c0             	inc    %r8
    3d2f:	e9 6e ff ff ff       	jmpq   3ca2 <_remove_repeated_cycle>

0000000000003d34 <_remove_cycle>:
    3d34:	48 89 15 dd fb 74 00 	mov    %rdx,0x74fbdd(%rip)        # 753918 <tmpquadone>
    3d3b:	48 8b 10             	mov    (%rax),%rdx
    3d3e:	48 8b 05 f3 fb 74 00 	mov    0x74fbf3(%rip),%rax        # 753938 <shmptr_gcnt>
    3d45:	48 89 10             	mov    %rdx,(%rax)
    3d48:	89 d0                	mov    %edx,%eax
    3d4a:	48 c1 ea 20          	shr    $0x20,%rdx
    3d4e:	49 c7 c0 06 00 00 00 	mov    $0x6,%r8
    3d55:	49 f7 f0             	div    %r8
    3d58:	89 05 ca 9e 5f 00    	mov    %eax,0x5f9eca(%rip)        # 5fdc28 <edgeCnt>
    3d5e:	48 8b 15 b3 fb 74 00 	mov    0x74fbb3(%rip),%rdx        # 753918 <tmpquadone>
    3d65:	eb 1c                	jmp    3d83 <_skipstoredata>

0000000000003d67 <_no_remove_cycle>:
    3d67:	48 8b 1d ca fb 74 00 	mov    0x74fbca(%rip),%rbx        # 753938 <shmptr_gcnt>
    3d6e:	48 8b 1b             	mov    (%rbx),%rbx
    3d71:	48 89 18             	mov    %rbx,(%rax)
    3d74:	eb 0d                	jmp    3d83 <_skipstoredata>

0000000000003d76 <_insert_entry>:
    3d76:	48 8b 1d bb fb 74 00 	mov    0x74fbbb(%rip),%rbx        # 753938 <shmptr_gcnt>
    3d7d:	48 8b 1b             	mov    (%rbx),%rbx
    3d80:	48 89 18             	mov    %rbx,(%rax)

0000000000003d83 <_skipstoredata>:
    3d83:	41 5a                	pop    %r10
    3d85:	41 59                	pop    %r9
    3d87:	41 58                	pop    %r8
    3d89:	5b                   	pop    %rbx
    3d8a:	58                   	pop    %rax
    3d8b:	48 89 ec             	mov    %rbp,%rsp
    3d8e:	5d                   	pop    %rbp
    3d8f:	c2 08 00             	retq   $0x8

0000000000003d92 <_shmFull>:
    3d92:	48 c7 c0 0f 00 00 00 	mov    $0xf,%rax
    3d99:	e8 12 db ff ff       	callq  18b0 <_exit@plt>

0000000000003d9e <_cmpdictFull>:
    3d9e:	48 c7 c0 0e 00 00 00 	mov    $0xe,%rax
    3da5:	e8 06 db ff ff       	callq  18b0 <_exit@plt>

0000000000003daa <_shmUninitialize>:
    3daa:	48 89 ec             	mov    %rbp,%rsp
    3dad:	5d                   	pop    %rbp
    3dae:	48 31 c0             	xor    %rax,%rax
    3db1:	c2 08 00             	retq   $0x8
    3db4:	0f 1f 40 00          	nopl   0x0(%rax)
    3db8:	9f                   	lahf   
    3db9:	0f 90 c0             	seto   %al
    3dbc:	0f 1f 40 00          	nopl   0x0(%rax)

0000000000003dc0 <__afl_setup_first>:
    3dc0:	48 8d a4 24 98 fe ff 	lea    -0x168(%rsp),%rsp
    3dc7:	ff 
    3dc8:	48 89 04 24          	mov    %rax,(%rsp)
    3dcc:	48 89 4c 24 08       	mov    %rcx,0x8(%rsp)
    3dd1:	48 89 7c 24 10       	mov    %rdi,0x10(%rsp)
    3dd6:	48 89 74 24 20       	mov    %rsi,0x20(%rsp)
    3ddb:	4c 89 44 24 28       	mov    %r8,0x28(%rsp)
    3de0:	4c 89 4c 24 30       	mov    %r9,0x30(%rsp)
    3de5:	4c 89 54 24 38       	mov    %r10,0x38(%rsp)
    3dea:	4c 89 5c 24 40       	mov    %r11,0x40(%rsp)
    3def:	66 0f d6 44 24 60    	movq   %xmm0,0x60(%rsp)
    3df5:	66 0f d6 4c 24 70    	movq   %xmm1,0x70(%rsp)
    3dfb:	66 0f d6 94 24 80 00 	movq   %xmm2,0x80(%rsp)
    3e02:	00 00 
    3e04:	66 0f d6 9c 24 90 00 	movq   %xmm3,0x90(%rsp)
    3e0b:	00 00 
    3e0d:	66 0f d6 a4 24 a0 00 	movq   %xmm4,0xa0(%rsp)
    3e14:	00 00 
    3e16:	66 0f d6 ac 24 b0 00 	movq   %xmm5,0xb0(%rsp)
    3e1d:	00 00 
    3e1f:	66 0f d6 b4 24 c0 00 	movq   %xmm6,0xc0(%rsp)
    3e26:	00 00 
    3e28:	66 0f d6 bc 24 d0 00 	movq   %xmm7,0xd0(%rsp)
    3e2f:	00 00 
    3e31:	66 44 0f d6 84 24 e0 	movq   %xmm8,0xe0(%rsp)
    3e38:	00 00 00 
    3e3b:	66 44 0f d6 8c 24 f0 	movq   %xmm9,0xf0(%rsp)
    3e42:	00 00 00 
    3e45:	66 44 0f d6 94 24 00 	movq   %xmm10,0x100(%rsp)
    3e4c:	01 00 00 
    3e4f:	66 44 0f d6 9c 24 10 	movq   %xmm11,0x110(%rsp)
    3e56:	01 00 00 
    3e59:	66 44 0f d6 a4 24 20 	movq   %xmm12,0x120(%rsp)
    3e60:	01 00 00 
    3e63:	66 44 0f d6 ac 24 30 	movq   %xmm13,0x130(%rsp)
    3e6a:	01 00 00 
    3e6d:	66 44 0f d6 b4 24 40 	movq   %xmm14,0x140(%rsp)
    3e74:	01 00 00 
    3e77:	66 44 0f d6 bc 24 50 	movq   %xmm15,0x150(%rsp)
    3e7e:	01 00 00 
    3e81:	48 89 94 24 60 01 00 	mov    %rdx,0x160(%rsp)
    3e88:	00 
    3e89:	41 54                	push   %r12
    3e8b:	49 89 e4             	mov    %rsp,%r12
    3e8e:	48 83 ec 10          	sub    $0x10,%rsp
    3e92:	48 83 e4 f0          	and    $0xfffffffffffffff0,%rsp
    3e96:	48 c7 05 a7 fa 74 00 	movq   $0x100000,0x74faa7(%rip)        # 753948 <shmSize>
    3e9d:	00 00 10 00 
    3ea1:	48 c7 05 3c 9d 5f 00 	movq   $0x100000,0x5f9d3c(%rip)        # 5fdbe8 <shmSize2>
    3ea8:	00 00 10 00 
    3eac:	48 8d 3d 4b 03 00 00 	lea    0x34b(%rip),%rdi        # 41fe <.SHM_ENV_GCNT>
    3eb3:	e8 a8 d9 ff ff       	callq  1860 <getenv@plt>
    3eb8:	48 85 c0             	test   %rax,%rax
    3ebb:	0f 84 6a 01 00 00    	je     402b <__afl_setup_abort>
    3ec1:	48 89 c7             	mov    %rax,%rdi
    3ec4:	e8 27 dd ff ff       	callq  1bf0 <atoi@plt>
    3ec9:	48 31 d2             	xor    %rdx,%rdx
    3ecc:	48 31 f6             	xor    %rsi,%rsi
    3ecf:	48 89 c7             	mov    %rax,%rdi
    3ed2:	e8 f9 dc ff ff       	callq  1bd0 <shmat@plt>
    3ed7:	48 83 f8 ff          	cmp    $0xffffffffffffffff,%rax
    3edb:	0f 84 4a 01 00 00    	je     402b <__afl_setup_abort>
    3ee1:	48 89 05 50 fa 74 00 	mov    %rax,0x74fa50(%rip)        # 753938 <shmptr_gcnt>
    3ee8:	48 8d 3d f6 02 00 00 	lea    0x2f6(%rip),%rdi        # 41e5 <.SHM_ENV_CMP>
    3eef:	e8 6c d9 ff ff       	callq  1860 <getenv@plt>
    3ef4:	48 85 c0             	test   %rax,%rax
    3ef7:	0f 84 2e 01 00 00    	je     402b <__afl_setup_abort>
    3efd:	48 89 c7             	mov    %rax,%rdi
    3f00:	e8 eb dc ff ff       	callq  1bf0 <atoi@plt>
    3f05:	48 31 d2             	xor    %rdx,%rdx
    3f08:	48 31 f6             	xor    %rsi,%rsi
    3f0b:	48 89 c7             	mov    %rax,%rdi
    3f0e:	e8 bd dc ff ff       	callq  1bd0 <shmat@plt>
    3f13:	48 83 f8 ff          	cmp    $0xffffffffffffffff,%rax
    3f17:	0f 84 0e 01 00 00    	je     402b <__afl_setup_abort>
    3f1d:	48 89 05 0c fa 74 00 	mov    %rax,0x74fa0c(%rip)        # 753930 <shmptr_cmp>
    3f24:	48 8d 3d c6 02 00 00 	lea    0x2c6(%rip),%rdi        # 41f1 <.SHM_ENV_EDGE>
    3f2b:	e8 30 d9 ff ff       	callq  1860 <getenv@plt>
    3f30:	48 85 c0             	test   %rax,%rax
    3f33:	0f 84 f2 00 00 00    	je     402b <__afl_setup_abort>
    3f39:	48 89 c7             	mov    %rax,%rdi
    3f3c:	e8 af dc ff ff       	callq  1bf0 <atoi@plt>
    3f41:	48 31 d2             	xor    %rdx,%rdx
    3f44:	48 31 f6             	xor    %rsi,%rsi
    3f47:	48 89 c7             	mov    %rax,%rdi
    3f4a:	e8 81 dc ff ff       	callq  1bd0 <shmat@plt>
    3f4f:	48 83 f8 ff          	cmp    $0xffffffffffffffff,%rax
    3f53:	0f 84 d2 00 00 00    	je     402b <__afl_setup_abort>
    3f59:	48 89 05 a8 f9 74 00 	mov    %rax,0x74f9a8(%rip)        # 753908 <shmptr_edge>

0000000000003f60 <__afl_forkserver>:
    3f60:	48 c7 c2 04 00 00 00 	mov    $0x4,%rdx
    3f67:	48 8d 35 9e 9a 5f 00 	lea    0x5f9a9e(%rip),%rsi        # 5fda0c <__afl_temp>
    3f6e:	48 c7 c7 c5 00 00 00 	mov    $0xc5,%rdi
    3f75:	e8 56 d9 ff ff       	callq  18d0 <write@plt>
    3f7a:	48 83 f8 04          	cmp    $0x4,%rax
    3f7e:	0f 85 78 01 00 00    	jne    40fc <__afl_fork_resume>

0000000000003f84 <__afl_fork_wait_loop>:
    3f84:	48 c7 c2 04 00 00 00 	mov    $0x4,%rdx
    3f8b:	48 8d 35 7a 9a 5f 00 	lea    0x5f9a7a(%rip),%rsi        # 5fda0c <__afl_temp>
    3f92:	48 c7 c7 c4 00 00 00 	mov    $0xc4,%rdi
    3f99:	e8 a2 da ff ff       	callq  1a40 <read@plt>
    3f9e:	48 83 f8 04          	cmp    $0x4,%rax
    3fa2:	75 70                	jne    4014 <__afl_die>
    3fa4:	e8 a7 dc ff ff       	callq  1c50 <fork@plt>
    3fa9:	48 83 f8 00          	cmp    $0x0,%rax
    3fad:	7c 65                	jl     4014 <__afl_die>
    3faf:	0f 84 47 01 00 00    	je     40fc <__afl_fork_resume>
    3fb5:	89 05 4d 9a 5f 00    	mov    %eax,0x5f9a4d(%rip)        # 5fda08 <__afl_fork_pid>
    3fbb:	48 c7 c2 04 00 00 00 	mov    $0x4,%rdx
    3fc2:	48 8d 35 3f 9a 5f 00 	lea    0x5f9a3f(%rip),%rsi        # 5fda08 <__afl_fork_pid>
    3fc9:	48 c7 c7 c5 00 00 00 	mov    $0xc5,%rdi
    3fd0:	e8 fb d8 ff ff       	callq  18d0 <write@plt>
    3fd5:	48 c7 c2 00 00 00 00 	mov    $0x0,%rdx
    3fdc:	48 8d 35 29 9a 5f 00 	lea    0x5f9a29(%rip),%rsi        # 5fda0c <__afl_temp>
    3fe3:	48 8b 3d 1e 9a 5f 00 	mov    0x5f9a1e(%rip),%rdi        # 5fda08 <__afl_fork_pid>
    3fea:	e8 91 db ff ff       	callq  1b80 <waitpid@plt>
    3fef:	48 83 f8 00          	cmp    $0x0,%rax
    3ff3:	7e 1f                	jle    4014 <__afl_die>
    3ff5:	48 c7 c2 04 00 00 00 	mov    $0x4,%rdx
    3ffc:	48 8d 35 09 9a 5f 00 	lea    0x5f9a09(%rip),%rsi        # 5fda0c <__afl_temp>
    4003:	48 c7 c7 c5 00 00 00 	mov    $0xc5,%rdi
    400a:	e8 c1 d8 ff ff       	callq  18d0 <write@plt>
    400f:	e9 70 ff ff ff       	jmpq   3f84 <__afl_fork_wait_loop>

0000000000004014 <__afl_die>:
    4014:	48 8d 3d 27 02 00 00 	lea    0x227(%rip),%rdi        # 4242 <.serverDied>
    401b:	48 31 c0             	xor    %rax,%rax
    401e:	e8 6d d9 ff ff       	callq  1990 <printf@plt>
    4023:	48 31 c0             	xor    %rax,%rax
    4026:	e8 85 d8 ff ff       	callq  18b0 <_exit@plt>

000000000000402b <__afl_setup_abort>:
    402b:	4c 89 e4             	mov    %r12,%rsp
    402e:	41 5c                	pop    %r12
    4030:	48 8b 04 24          	mov    (%rsp),%rax
    4034:	48 8b 4c 24 08       	mov    0x8(%rsp),%rcx
    4039:	48 8b 7c 24 10       	mov    0x10(%rsp),%rdi
    403e:	48 8b 74 24 20       	mov    0x20(%rsp),%rsi
    4043:	4c 8b 44 24 28       	mov    0x28(%rsp),%r8
    4048:	4c 8b 4c 24 30       	mov    0x30(%rsp),%r9
    404d:	4c 8b 54 24 38       	mov    0x38(%rsp),%r10
    4052:	4c 8b 5c 24 40       	mov    0x40(%rsp),%r11
    4057:	f3 0f 7e 44 24 60    	movq   0x60(%rsp),%xmm0
    405d:	f3 0f 7e 4c 24 70    	movq   0x70(%rsp),%xmm1
    4063:	f3 0f 7e 94 24 80 00 	movq   0x80(%rsp),%xmm2
    406a:	00 00 
    406c:	f3 0f 7e 9c 24 90 00 	movq   0x90(%rsp),%xmm3
    4073:	00 00 
    4075:	f3 0f 7e a4 24 a0 00 	movq   0xa0(%rsp),%xmm4
    407c:	00 00 
    407e:	f3 0f 7e ac 24 b0 00 	movq   0xb0(%rsp),%xmm5
    4085:	00 00 
    4087:	f3 0f 7e b4 24 c0 00 	movq   0xc0(%rsp),%xmm6
    408e:	00 00 
    4090:	f3 0f 7e bc 24 d0 00 	movq   0xd0(%rsp),%xmm7
    4097:	00 00 
    4099:	f3 44 0f 7e 84 24 e0 	movq   0xe0(%rsp),%xmm8
    40a0:	00 00 00 
    40a3:	f3 44 0f 7e 8c 24 f0 	movq   0xf0(%rsp),%xmm9
    40aa:	00 00 00 
    40ad:	f3 44 0f 7e 94 24 00 	movq   0x100(%rsp),%xmm10
    40b4:	01 00 00 
    40b7:	f3 44 0f 7e 9c 24 10 	movq   0x110(%rsp),%xmm11
    40be:	01 00 00 
    40c1:	f3 44 0f 7e a4 24 20 	movq   0x120(%rsp),%xmm12
    40c8:	01 00 00 
    40cb:	f3 44 0f 7e ac 24 30 	movq   0x130(%rsp),%xmm13
    40d2:	01 00 00 
    40d5:	f3 44 0f 7e b4 24 40 	movq   0x140(%rsp),%xmm14
    40dc:	01 00 00 
    40df:	f3 44 0f 7e bc 24 50 	movq   0x150(%rsp),%xmm15
    40e6:	01 00 00 
    40e9:	48 8b 94 24 60 01 00 	mov    0x160(%rsp),%rdx
    40f0:	00 
    40f1:	48 8d a4 24 68 01 00 	lea    0x168(%rsp),%rsp
    40f8:	00 
    40f9:	b0 7f                	mov    $0x7f,%al
    40fb:	c3                   	retq   

00000000000040fc <__afl_fork_resume>:
    40fc:	48 c7 c7 c4 00 00 00 	mov    $0xc4,%rdi
    4103:	e8 08 d9 ff ff       	callq  1a10 <close@plt>
    4108:	48 c7 c7 c5 00 00 00 	mov    $0xc5,%rdi
    410f:	e8 fc d8 ff ff       	callq  1a10 <close@plt>
    4114:	4c 89 e4             	mov    %r12,%rsp
    4117:	41 5c                	pop    %r12
    4119:	48 8b 04 24          	mov    (%rsp),%rax
    411d:	48 8b 4c 24 08       	mov    0x8(%rsp),%rcx
    4122:	48 8b 7c 24 10       	mov    0x10(%rsp),%rdi
    4127:	48 8b 74 24 20       	mov    0x20(%rsp),%rsi
    412c:	4c 8b 44 24 28       	mov    0x28(%rsp),%r8
    4131:	4c 8b 4c 24 30       	mov    0x30(%rsp),%r9
    4136:	4c 8b 54 24 38       	mov    0x38(%rsp),%r10
    413b:	4c 8b 5c 24 40       	mov    0x40(%rsp),%r11
    4140:	f3 0f 7e 44 24 60    	movq   0x60(%rsp),%xmm0
    4146:	f3 0f 7e 4c 24 70    	movq   0x70(%rsp),%xmm1
    414c:	f3 0f 7e 94 24 80 00 	movq   0x80(%rsp),%xmm2
    4153:	00 00 
    4155:	f3 0f 7e 9c 24 90 00 	movq   0x90(%rsp),%xmm3
    415c:	00 00 
    415e:	f3 0f 7e a4 24 a0 00 	movq   0xa0(%rsp),%xmm4
    4165:	00 00 
    4167:	f3 0f 7e ac 24 b0 00 	movq   0xb0(%rsp),%xmm5
    416e:	00 00 
    4170:	f3 0f 7e b4 24 c0 00 	movq   0xc0(%rsp),%xmm6
    4177:	00 00 
    4179:	f3 0f 7e bc 24 d0 00 	movq   0xd0(%rsp),%xmm7
    4180:	00 00 
    4182:	f3 44 0f 7e 84 24 e0 	movq   0xe0(%rsp),%xmm8
    4189:	00 00 00 
    418c:	f3 44 0f 7e 8c 24 f0 	movq   0xf0(%rsp),%xmm9
    4193:	00 00 00 
    4196:	f3 44 0f 7e 94 24 00 	movq   0x100(%rsp),%xmm10
    419d:	01 00 00 
    41a0:	f3 44 0f 7e 9c 24 10 	movq   0x110(%rsp),%xmm11
    41a7:	01 00 00 
    41aa:	f3 44 0f 7e a4 24 20 	movq   0x120(%rsp),%xmm12
    41b1:	01 00 00 
    41b4:	f3 44 0f 7e ac 24 30 	movq   0x130(%rsp),%xmm13
    41bb:	01 00 00 
    41be:	f3 44 0f 7e b4 24 40 	movq   0x140(%rsp),%xmm14
    41c5:	01 00 00 
    41c8:	f3 44 0f 7e bc 24 50 	movq   0x150(%rsp),%xmm15
    41cf:	01 00 00 
    41d2:	48 8b 94 24 60 01 00 	mov    0x160(%rsp),%rdx
    41d9:	00 
    41da:	48 8d a4 24 68 01 00 	lea    0x168(%rsp),%rsp
    41e1:	00 
    41e2:	b0 00                	mov    $0x0,%al
    41e4:	c3                   	retq   

00000000000041e5 <.SHM_ENV_CMP>:
    41e5:	53                   	push   %rbx
    41e6:	48                   	rex.W
    41e7:	4d 5f                	rex.WRB pop %r15
    41e9:	45                   	rex.RB
    41ea:	4e 56                	rex.WRX push %rsi
    41ec:	5f                   	pop    %rdi
    41ed:	43                   	rex.XB
    41ee:	4d 50                	rex.WRB push %r8
	...

00000000000041f1 <.SHM_ENV_EDGE>:
    41f1:	53                   	push   %rbx
    41f2:	48                   	rex.W
    41f3:	4d 5f                	rex.WRB pop %r15
    41f5:	45                   	rex.RB
    41f6:	4e 56                	rex.WRX push %rsi
    41f8:	5f                   	pop    %rdi
    41f9:	45                   	rex.RB
    41fa:	44                   	rex.R
    41fb:	47                   	rex.RXB
    41fc:	45                   	rex.RB
	...

00000000000041fe <.SHM_ENV_GCNT>:
    41fe:	53                   	push   %rbx
    41ff:	48                   	rex.W
    4200:	4d 5f                	rex.WRB pop %r15
    4202:	45                   	rex.RB
    4203:	4e 56                	rex.WRX push %rsi
    4205:	5f                   	pop    %rdi
    4206:	47                   	rex.RXB
    4207:	43                   	rex.XB
    4208:	4e 54                	rex.WRX push %rsp
	...

000000000000420b <.serverSetupError>:
    420b:	20 53 65             	and    %dl,0x65(%rbx)
    420e:	72 76                	jb     4286 <_storeEdge+0x1e>
    4210:	65 72 20             	gs jb  4233 <.serverSetupError+0x28>
    4213:	53                   	push   %rbx
    4214:	65 74 75             	gs je  428c <_storeEdge+0x24>
    4217:	70 20                	jo     4239 <.serverSetupError+0x2e>
    4219:	45 72 72             	rex.RB jb 428e <_storeEdge+0x26>
    421c:	6f                   	outsl  %ds:(%rsi),(%dx)
    421d:	72 2c                	jb     424b <.serverDied+0x9>
    421f:	20 63 6f             	and    %ah,0x6f(%rbx)
    4222:	6e                   	outsb  %ds:(%rsi),(%dx)
    4223:	74 69                	je     428e <_storeEdge+0x26>
    4225:	6e                   	outsb  %ds:(%rsi),(%dx)
    4226:	75 65                	jne    428d <_storeEdge+0x25>
    4228:	20 72 75             	and    %dh,0x75(%rdx)
    422b:	6e                   	outsb  %ds:(%rsi),(%dx)
    422c:	6e                   	outsb  %ds:(%rsi),(%dx)
    422d:	69 67 20 77 69 74 68 	imul   $0x68746977,0x20(%rdi),%esp
    4234:	6f                   	outsl  %ds:(%rsi),(%dx)
    4235:	75 74                	jne    42ab <_storeEdge+0x43>
    4237:	20 73 65             	and    %dh,0x65(%rbx)
    423a:	72 76                	jb     42b2 <_caledgehash>
    423c:	65 72 20             	gs jb  425f <.debug+0xa>
    423f:	0a 20                	or     (%rax),%ah
	...

0000000000004242 <.serverDied>:
    4242:	20 53 65             	and    %dl,0x65(%rbx)
    4245:	72 76                	jb     42bd <_caledgehash+0xb>
    4247:	65 72 20             	gs jb  426a <_storeEdge+0x2>
    424a:	69 73 20 64 65 61 64 	imul   $0x64616564,0x20(%rbx),%esi
    4251:	20 0a                	and    %cl,(%rdx)
    4253:	20 00                	and    %al,(%rax)

0000000000004255 <.debug>:
    4255:	64 65 62             	fs gs (bad) 
    4258:	75 67                	jne    42c1 <_caledgehash+0xf>
    425a:	20 6d 65             	and    %ch,0x65(%rbp)
    425d:	73 73                	jae    42d2 <_caledgehash+0x20>
    425f:	61                   	(bad)  
    4260:	67 65 3a 20          	cmp    %gs:(%eax),%ah
    4264:	0a 20                	or     (%rax),%ah
    4266:	00                   	.byte 0x0
    4267:	90                   	nop

0000000000004268 <_storeEdge>:
    4268:	50                   	push   %rax
    4269:	53                   	push   %rbx
    426a:	51                   	push   %rcx
    426b:	52                   	push   %rdx
    426c:	48 83 3d dc f6 74 00 	cmpq   $0x1,0x74f6dc(%rip)        # 753950 <cmpPassed>
    4273:	01 
    4274:	75 3c                	jne    42b2 <_caledgehash>
    4276:	48 c7 05 cf f6 74 00 	movq   $0x0,0x74f6cf(%rip)        # 753950 <cmpPassed>
    427d:	00 00 00 00 
    4281:	48 8b 05 a0 99 5f 00 	mov    0x5f99a0(%rip),%rax        # 5fdc28 <edgeCnt>
    4288:	48 c1 e0 03          	shl    $0x3,%rax
    428c:	48 3b 05 55 99 5f 00 	cmp    0x5f9955(%rip),%rax        # 5fdbe8 <shmSize2>
    4293:	77 55                	ja     42ea <_shm2Full>
    4295:	48 8b 1d 74 f6 74 00 	mov    0x74f674(%rip),%rbx        # 753910 <edgehash>
    429c:	48 8b 15 65 f6 74 00 	mov    0x74f665(%rip),%rdx        # 753908 <shmptr_edge>
    42a3:	48 8d 0c 10          	lea    (%rax,%rdx,1),%rcx
    42a7:	48 89 19             	mov    %rbx,(%rcx)
    42aa:	48 83 05 76 99 5f 00 	addq   $0x1,0x5f9976(%rip)        # 5fdc28 <edgeCnt>
    42b1:	01 

00000000000042b2 <_caledgehash>:
    42b2:	48 8b 15 57 f6 74 00 	mov    0x74f657(%rip),%rdx        # 753910 <edgehash>
    42b9:	48 89 d0             	mov    %rdx,%rax
    42bc:	48 c1 e0 05          	shl    $0x5,%rax
    42c0:	48 01 c2             	add    %rax,%rdx
    42c3:	48 8b 05 76 f6 74 00 	mov    0x74f676(%rip),%rax        # 753940 <edgeId>
    42ca:	48 01 d0             	add    %rdx,%rax
    42cd:	48 89 05 3c f6 74 00 	mov    %rax,0x74f63c(%rip)        # 753910 <edgehash>
    42d4:	48 b8 ff ff ff ff 00 	movabs $0xffffffff,%rax
    42db:	00 00 00 
    42de:	48 21 05 2b f6 74 00 	and    %rax,0x74f62b(%rip)        # 753910 <edgehash>
    42e5:	5a                   	pop    %rdx
    42e6:	59                   	pop    %rcx
    42e7:	5b                   	pop    %rbx
    42e8:	58                   	pop    %rax
    42e9:	c3                   	retq   

00000000000042ea <_shm2Full>:
    42ea:	48 c7 c0 0f 00 00 00 	mov    $0xf,%rax
    42f1:	5a                   	pop    %rdx
    42f2:	59                   	pop    %rcx
    42f3:	5b                   	pop    %rbx
    42f4:	58                   	pop    %rax
    42f5:	e8 b6 d5 ff ff       	callq  18b0 <_exit@plt>
    42fa:	66 0f 1f 44 00 00    	nopw   0x0(%rax,%rax,1)

0000000000004300 <_storeDataFn>:
    4300:	55                   	push   %rbp
    4301:	48 89 e5             	mov    %rsp,%rbp
    4304:	50                   	push   %rax
    4305:	53                   	push   %rbx
    4306:	41 50                	push   %r8
    4308:	41 51                	push   %r9
    430a:	41 52                	push   %r10
    430c:	48 8b 05 25 f6 74 00 	mov    0x74f625(%rip),%rax        # 753938 <shmptr_gcnt>
    4313:	48 8b 00             	mov    (%rax),%rax
    4316:	48 c1 e0 03          	shl    $0x3,%rax
    431a:	48 83 c0 30          	add    $0x30,%rax
    431e:	48 3b 05 23 f6 74 00 	cmp    0x74f623(%rip),%rax        # 753948 <shmSize>
    4325:	0f 83 8f 01 00 00    	jae    44ba <_shmFull>
    432b:	48 83 3d fd f5 74 00 	cmpq   $0x0,0x74f5fd(%rip)        # 753930 <shmptr_cmp>
    4332:	00 
    4333:	0f 84 99 01 00 00    	je     44d2 <_shmUninitialize>
    4339:	48 c7 c3 00 00 00 00 	mov    $0x0,%rbx
    4340:	48 83 e8 30          	sub    $0x30,%rax
    4344:	48 c1 e8 03          	shr    $0x3,%rax

0000000000004348 <_storeloop>:
    4348:	49 89 c2             	mov    %rax,%r10
    434b:	49 c1 e2 03          	shl    $0x3,%r10
    434f:	4c 03 15 da f5 74 00 	add    0x74f5da(%rip),%r10        # 753930 <shmptr_cmp>
    4356:	49 89 d9             	mov    %rbx,%r9
    4359:	49 c1 e1 03          	shl    $0x3,%r9
    435d:	4c 8d 05 8c 98 5f 00 	lea    0x5f988c(%rip),%r8        # 5fdbf0 <funcinptr>
    4364:	4d 01 c1             	add    %r8,%r9
    4367:	4d 8b 01             	mov    (%r9),%r8
    436a:	4d 89 02             	mov    %r8,(%r10)
    436d:	48 83 fb 00          	cmp    $0x0,%rbx
    4371:	75 07                	jne    437a <_no_get_cmpid>
    4373:	4c 89 05 ae f5 74 00 	mov    %r8,0x74f5ae(%rip)        # 753928 <cmpid>

000000000000437a <_no_get_cmpid>:
    437a:	48 ff c0             	inc    %rax
    437d:	48 ff c3             	inc    %rbx
    4380:	48 83 fb 06          	cmp    $0x6,%rbx
    4384:	75 c2                	jne    4348 <_storeloop>
    4386:	48 8b 1d ab f5 74 00 	mov    0x74f5ab(%rip),%rbx        # 753938 <shmptr_gcnt>
    438d:	48 89 03             	mov    %rax,(%rbx)
    4390:	48 8b 05 91 f5 74 00 	mov    0x74f591(%rip),%rax        # 753928 <cmpid>
    4397:	48 c1 e0 04          	shl    $0x4,%rax
    439b:	48 89 c3             	mov    %rax,%rbx
    439e:	48 83 c3 08          	add    $0x8,%rbx
    43a2:	48 81 fb c0 5c 15 00 	cmp    $0x155cc0,%rbx
    43a9:	0f 83 17 01 00 00    	jae    44c6 <_cmpdictFull>
    43af:	48 8d 1d 8a 98 5f 00 	lea    0x5f988a(%rip),%rbx        # 5fdc40 <cmpid_dict>
    43b6:	48 01 d8             	add    %rbx,%rax
    43b9:	48 83 38 00          	cmpq   $0x0,(%rax)
    43bd:	0f 84 db 00 00 00    	je     449e <_insert_entry>
    43c3:	49 c7 c0 00 00 00 00 	mov    $0x0,%r8

00000000000043ca <_remove_repeated_cycle>:
    43ca:	4d 89 c1             	mov    %r8,%r9
    43cd:	4d 89 ca             	mov    %r9,%r10
    43d0:	49 c1 e1 02          	shl    $0x2,%r9
    43d4:	4d 01 d1             	add    %r10,%r9
    43d7:	4d 01 d1             	add    %r10,%r9
    43da:	4c 8b 15 57 f5 74 00 	mov    0x74f557(%rip),%r10        # 753938 <shmptr_gcnt>
    43e1:	4d 8b 12             	mov    (%r10),%r10
    43e4:	4c 2b 10             	sub    (%rax),%r10
    43e7:	4c 3b 10             	cmp    (%rax),%r10
    43ea:	0f 87 9f 00 00 00    	ja     448f <_no_remove_cycle>
    43f0:	4d 39 ca             	cmp    %r9,%r10
    43f3:	76 67                	jbe    445c <_remove_cycle>
    43f5:	4d 89 c1             	mov    %r8,%r9
    43f8:	49 83 c1 01          	add    $0x1,%r9
    43fc:	4d 89 ca             	mov    %r9,%r10
    43ff:	49 c1 e1 02          	shl    $0x2,%r9
    4403:	4d 01 d1             	add    %r10,%r9
    4406:	4d 01 d1             	add    %r10,%r9
    4409:	4c 8b 15 28 f5 74 00 	mov    0x74f528(%rip),%r10        # 753938 <shmptr_gcnt>
    4410:	4d 8b 12             	mov    (%r10),%r10
    4413:	4d 29 ca             	sub    %r9,%r10
    4416:	49 c1 e2 03          	shl    $0x3,%r10
    441a:	4c 8b 0d 0f f5 74 00 	mov    0x74f50f(%rip),%r9        # 753930 <shmptr_cmp>
    4421:	4d 01 d1             	add    %r10,%r9
    4424:	49 8b 19             	mov    (%r9),%rbx
    4427:	4d 89 c1             	mov    %r8,%r9
    442a:	49 83 c1 01          	add    $0x1,%r9
    442e:	4d 89 ca             	mov    %r9,%r10
    4431:	49 c1 e1 02          	shl    $0x2,%r9
    4435:	4d 01 d1             	add    %r10,%r9
    4438:	4d 01 d1             	add    %r10,%r9
    443b:	4c 8b 10             	mov    (%rax),%r10
    443e:	4d 29 ca             	sub    %r9,%r10
    4441:	49 c1 e2 03          	shl    $0x3,%r10
    4445:	4c 8b 0d e4 f4 74 00 	mov    0x74f4e4(%rip),%r9        # 753930 <shmptr_cmp>
    444c:	4d 01 d1             	add    %r10,%r9
    444f:	49 3b 19             	cmp    (%r9),%rbx
    4452:	75 3b                	jne    448f <_no_remove_cycle>
    4454:	49 ff c0             	inc    %r8
    4457:	e9 6e ff ff ff       	jmpq   43ca <_remove_repeated_cycle>

000000000000445c <_remove_cycle>:
    445c:	48 89 15 b5 f4 74 00 	mov    %rdx,0x74f4b5(%rip)        # 753918 <tmpquadone>
    4463:	48 8b 10             	mov    (%rax),%rdx
    4466:	48 8b 05 cb f4 74 00 	mov    0x74f4cb(%rip),%rax        # 753938 <shmptr_gcnt>
    446d:	48 89 10             	mov    %rdx,(%rax)
    4470:	89 d0                	mov    %edx,%eax
    4472:	48 c1 ea 20          	shr    $0x20,%rdx
    4476:	49 c7 c0 06 00 00 00 	mov    $0x6,%r8
    447d:	49 f7 f0             	div    %r8
    4480:	89 05 a2 97 5f 00    	mov    %eax,0x5f97a2(%rip)        # 5fdc28 <edgeCnt>
    4486:	48 8b 15 8b f4 74 00 	mov    0x74f48b(%rip),%rdx        # 753918 <tmpquadone>
    448d:	eb 1c                	jmp    44ab <_skipstoredata>

000000000000448f <_no_remove_cycle>:
    448f:	48 8b 1d a2 f4 74 00 	mov    0x74f4a2(%rip),%rbx        # 753938 <shmptr_gcnt>
    4496:	48 8b 1b             	mov    (%rbx),%rbx
    4499:	48 89 18             	mov    %rbx,(%rax)
    449c:	eb 0d                	jmp    44ab <_skipstoredata>

000000000000449e <_insert_entry>:
    449e:	48 8b 1d 93 f4 74 00 	mov    0x74f493(%rip),%rbx        # 753938 <shmptr_gcnt>
    44a5:	48 8b 1b             	mov    (%rbx),%rbx
    44a8:	48 89 18             	mov    %rbx,(%rax)

00000000000044ab <_skipstoredata>:
    44ab:	41 5a                	pop    %r10
    44ad:	41 59                	pop    %r9
    44af:	41 58                	pop    %r8
    44b1:	5b                   	pop    %rbx
    44b2:	58                   	pop    %rax
    44b3:	48 89 ec             	mov    %rbp,%rsp
    44b6:	5d                   	pop    %rbp
    44b7:	c2 08 00             	retq   $0x8

00000000000044ba <_shmFull>:
    44ba:	48 c7 c0 0f 00 00 00 	mov    $0xf,%rax
    44c1:	e8 ea d3 ff ff       	callq  18b0 <_exit@plt>

00000000000044c6 <_cmpdictFull>:
    44c6:	48 c7 c0 0e 00 00 00 	mov    $0xe,%rax
    44cd:	e8 de d3 ff ff       	callq  18b0 <_exit@plt>

00000000000044d2 <_shmUninitialize>:
    44d2:	48 89 ec             	mov    %rbp,%rsp
    44d5:	5d                   	pop    %rbp
    44d6:	48 31 c0             	xor    %rax,%rax
    44d9:	c2 08 00             	retq   $0x8
    44dc:	0f 1f 40 00          	nopl   0x0(%rax)
    44e0:	9f                   	lahf   
    44e1:	0f 90 c0             	seto   %al
    44e4:	0f 1f 40 00          	nopl   0x0(%rax)

00000000000044e8 <__afl_setup_first>:
    44e8:	48 8d a4 24 98 fe ff 	lea    -0x168(%rsp),%rsp
    44ef:	ff 
    44f0:	48 89 04 24          	mov    %rax,(%rsp)
    44f4:	48 89 4c 24 08       	mov    %rcx,0x8(%rsp)
    44f9:	48 89 7c 24 10       	mov    %rdi,0x10(%rsp)
    44fe:	48 89 74 24 20       	mov    %rsi,0x20(%rsp)
    4503:	4c 89 44 24 28       	mov    %r8,0x28(%rsp)
    4508:	4c 89 4c 24 30       	mov    %r9,0x30(%rsp)
    450d:	4c 89 54 24 38       	mov    %r10,0x38(%rsp)
    4512:	4c 89 5c 24 40       	mov    %r11,0x40(%rsp)
    4517:	66 0f d6 44 24 60    	movq   %xmm0,0x60(%rsp)
    451d:	66 0f d6 4c 24 70    	movq   %xmm1,0x70(%rsp)
    4523:	66 0f d6 94 24 80 00 	movq   %xmm2,0x80(%rsp)
    452a:	00 00 
    452c:	66 0f d6 9c 24 90 00 	movq   %xmm3,0x90(%rsp)
    4533:	00 00 
    4535:	66 0f d6 a4 24 a0 00 	movq   %xmm4,0xa0(%rsp)
    453c:	00 00 
    453e:	66 0f d6 ac 24 b0 00 	movq   %xmm5,0xb0(%rsp)
    4545:	00 00 
    4547:	66 0f d6 b4 24 c0 00 	movq   %xmm6,0xc0(%rsp)
    454e:	00 00 
    4550:	66 0f d6 bc 24 d0 00 	movq   %xmm7,0xd0(%rsp)
    4557:	00 00 
    4559:	66 44 0f d6 84 24 e0 	movq   %xmm8,0xe0(%rsp)
    4560:	00 00 00 
    4563:	66 44 0f d6 8c 24 f0 	movq   %xmm9,0xf0(%rsp)
    456a:	00 00 00 
    456d:	66 44 0f d6 94 24 00 	movq   %xmm10,0x100(%rsp)
    4574:	01 00 00 
    4577:	66 44 0f d6 9c 24 10 	movq   %xmm11,0x110(%rsp)
    457e:	01 00 00 
    4581:	66 44 0f d6 a4 24 20 	movq   %xmm12,0x120(%rsp)
    4588:	01 00 00 
    458b:	66 44 0f d6 ac 24 30 	movq   %xmm13,0x130(%rsp)
    4592:	01 00 00 
    4595:	66 44 0f d6 b4 24 40 	movq   %xmm14,0x140(%rsp)
    459c:	01 00 00 
    459f:	66 44 0f d6 bc 24 50 	movq   %xmm15,0x150(%rsp)
    45a6:	01 00 00 
    45a9:	48 89 94 24 60 01 00 	mov    %rdx,0x160(%rsp)
    45b0:	00 
    45b1:	41 54                	push   %r12
    45b3:	49 89 e4             	mov    %rsp,%r12
    45b6:	48 83 ec 10          	sub    $0x10,%rsp
    45ba:	48 83 e4 f0          	and    $0xfffffffffffffff0,%rsp
    45be:	48 c7 05 7f f3 74 00 	movq   $0x100000,0x74f37f(%rip)        # 753948 <shmSize>
    45c5:	00 00 10 00 
    45c9:	48 c7 05 14 96 5f 00 	movq   $0x100000,0x5f9614(%rip)        # 5fdbe8 <shmSize2>
    45d0:	00 00 10 00 
    45d4:	48 8d 3d 4b 03 00 00 	lea    0x34b(%rip),%rdi        # 4926 <.SHM_ENV_GCNT>
    45db:	e8 80 d2 ff ff       	callq  1860 <getenv@plt>
    45e0:	48 85 c0             	test   %rax,%rax
    45e3:	0f 84 6a 01 00 00    	je     4753 <__afl_setup_abort>
    45e9:	48 89 c7             	mov    %rax,%rdi
    45ec:	e8 ff d5 ff ff       	callq  1bf0 <atoi@plt>
    45f1:	48 31 d2             	xor    %rdx,%rdx
    45f4:	48 31 f6             	xor    %rsi,%rsi
    45f7:	48 89 c7             	mov    %rax,%rdi
    45fa:	e8 d1 d5 ff ff       	callq  1bd0 <shmat@plt>
    45ff:	48 83 f8 ff          	cmp    $0xffffffffffffffff,%rax
    4603:	0f 84 4a 01 00 00    	je     4753 <__afl_setup_abort>
    4609:	48 89 05 28 f3 74 00 	mov    %rax,0x74f328(%rip)        # 753938 <shmptr_gcnt>
    4610:	48 8d 3d f6 02 00 00 	lea    0x2f6(%rip),%rdi        # 490d <.SHM_ENV_CMP>
    4617:	e8 44 d2 ff ff       	callq  1860 <getenv@plt>
    461c:	48 85 c0             	test   %rax,%rax
    461f:	0f 84 2e 01 00 00    	je     4753 <__afl_setup_abort>
    4625:	48 89 c7             	mov    %rax,%rdi
    4628:	e8 c3 d5 ff ff       	callq  1bf0 <atoi@plt>
    462d:	48 31 d2             	xor    %rdx,%rdx
    4630:	48 31 f6             	xor    %rsi,%rsi
    4633:	48 89 c7             	mov    %rax,%rdi
    4636:	e8 95 d5 ff ff       	callq  1bd0 <shmat@plt>
    463b:	48 83 f8 ff          	cmp    $0xffffffffffffffff,%rax
    463f:	0f 84 0e 01 00 00    	je     4753 <__afl_setup_abort>
    4645:	48 89 05 e4 f2 74 00 	mov    %rax,0x74f2e4(%rip)        # 753930 <shmptr_cmp>
    464c:	48 8d 3d c6 02 00 00 	lea    0x2c6(%rip),%rdi        # 4919 <.SHM_ENV_EDGE>
    4653:	e8 08 d2 ff ff       	callq  1860 <getenv@plt>
    4658:	48 85 c0             	test   %rax,%rax
    465b:	0f 84 f2 00 00 00    	je     4753 <__afl_setup_abort>
    4661:	48 89 c7             	mov    %rax,%rdi
    4664:	e8 87 d5 ff ff       	callq  1bf0 <atoi@plt>
    4669:	48 31 d2             	xor    %rdx,%rdx
    466c:	48 31 f6             	xor    %rsi,%rsi
    466f:	48 89 c7             	mov    %rax,%rdi
    4672:	e8 59 d5 ff ff       	callq  1bd0 <shmat@plt>
    4677:	48 83 f8 ff          	cmp    $0xffffffffffffffff,%rax
    467b:	0f 84 d2 00 00 00    	je     4753 <__afl_setup_abort>
    4681:	48 89 05 80 f2 74 00 	mov    %rax,0x74f280(%rip)        # 753908 <shmptr_edge>

0000000000004688 <__afl_forkserver>:
    4688:	48 c7 c2 04 00 00 00 	mov    $0x4,%rdx
    468f:	48 8d 35 7e 93 5f 00 	lea    0x5f937e(%rip),%rsi        # 5fda14 <__afl_temp>
    4696:	48 c7 c7 c5 00 00 00 	mov    $0xc5,%rdi
    469d:	e8 2e d2 ff ff       	callq  18d0 <write@plt>
    46a2:	48 83 f8 04          	cmp    $0x4,%rax
    46a6:	0f 85 78 01 00 00    	jne    4824 <__afl_fork_resume>

00000000000046ac <__afl_fork_wait_loop>:
    46ac:	48 c7 c2 04 00 00 00 	mov    $0x4,%rdx
    46b3:	48 8d 35 5a 93 5f 00 	lea    0x5f935a(%rip),%rsi        # 5fda14 <__afl_temp>
    46ba:	48 c7 c7 c4 00 00 00 	mov    $0xc4,%rdi
    46c1:	e8 7a d3 ff ff       	callq  1a40 <read@plt>
    46c6:	48 83 f8 04          	cmp    $0x4,%rax
    46ca:	75 70                	jne    473c <__afl_die>
    46cc:	e8 7f d5 ff ff       	callq  1c50 <fork@plt>
    46d1:	48 83 f8 00          	cmp    $0x0,%rax
    46d5:	7c 65                	jl     473c <__afl_die>
    46d7:	0f 84 47 01 00 00    	je     4824 <__afl_fork_resume>
    46dd:	89 05 2d 93 5f 00    	mov    %eax,0x5f932d(%rip)        # 5fda10 <__afl_fork_pid>
    46e3:	48 c7 c2 04 00 00 00 	mov    $0x4,%rdx
    46ea:	48 8d 35 1f 93 5f 00 	lea    0x5f931f(%rip),%rsi        # 5fda10 <__afl_fork_pid>
    46f1:	48 c7 c7 c5 00 00 00 	mov    $0xc5,%rdi
    46f8:	e8 d3 d1 ff ff       	callq  18d0 <write@plt>
    46fd:	48 c7 c2 00 00 00 00 	mov    $0x0,%rdx
    4704:	48 8d 35 09 93 5f 00 	lea    0x5f9309(%rip),%rsi        # 5fda14 <__afl_temp>
    470b:	48 8b 3d fe 92 5f 00 	mov    0x5f92fe(%rip),%rdi        # 5fda10 <__afl_fork_pid>
    4712:	e8 69 d4 ff ff       	callq  1b80 <waitpid@plt>
    4717:	48 83 f8 00          	cmp    $0x0,%rax
    471b:	7e 1f                	jle    473c <__afl_die>
    471d:	48 c7 c2 04 00 00 00 	mov    $0x4,%rdx
    4724:	48 8d 35 e9 92 5f 00 	lea    0x5f92e9(%rip),%rsi        # 5fda14 <__afl_temp>
    472b:	48 c7 c7 c5 00 00 00 	mov    $0xc5,%rdi
    4732:	e8 99 d1 ff ff       	callq  18d0 <write@plt>
    4737:	e9 70 ff ff ff       	jmpq   46ac <__afl_fork_wait_loop>

000000000000473c <__afl_die>:
    473c:	48 8d 3d 27 02 00 00 	lea    0x227(%rip),%rdi        # 496a <.serverDied>
    4743:	48 31 c0             	xor    %rax,%rax
    4746:	e8 45 d2 ff ff       	callq  1990 <printf@plt>
    474b:	48 31 c0             	xor    %rax,%rax
    474e:	e8 5d d1 ff ff       	callq  18b0 <_exit@plt>

0000000000004753 <__afl_setup_abort>:
    4753:	4c 89 e4             	mov    %r12,%rsp
    4756:	41 5c                	pop    %r12
    4758:	48 8b 04 24          	mov    (%rsp),%rax
    475c:	48 8b 4c 24 08       	mov    0x8(%rsp),%rcx
    4761:	48 8b 7c 24 10       	mov    0x10(%rsp),%rdi
    4766:	48 8b 74 24 20       	mov    0x20(%rsp),%rsi
    476b:	4c 8b 44 24 28       	mov    0x28(%rsp),%r8
    4770:	4c 8b 4c 24 30       	mov    0x30(%rsp),%r9
    4775:	4c 8b 54 24 38       	mov    0x38(%rsp),%r10
    477a:	4c 8b 5c 24 40       	mov    0x40(%rsp),%r11
    477f:	f3 0f 7e 44 24 60    	movq   0x60(%rsp),%xmm0
    4785:	f3 0f 7e 4c 24 70    	movq   0x70(%rsp),%xmm1
    478b:	f3 0f 7e 94 24 80 00 	movq   0x80(%rsp),%xmm2
    4792:	00 00 
    4794:	f3 0f 7e 9c 24 90 00 	movq   0x90(%rsp),%xmm3
    479b:	00 00 
    479d:	f3 0f 7e a4 24 a0 00 	movq   0xa0(%rsp),%xmm4
    47a4:	00 00 
    47a6:	f3 0f 7e ac 24 b0 00 	movq   0xb0(%rsp),%xmm5
    47ad:	00 00 
    47af:	f3 0f 7e b4 24 c0 00 	movq   0xc0(%rsp),%xmm6
    47b6:	00 00 
    47b8:	f3 0f 7e bc 24 d0 00 	movq   0xd0(%rsp),%xmm7
    47bf:	00 00 
    47c1:	f3 44 0f 7e 84 24 e0 	movq   0xe0(%rsp),%xmm8
    47c8:	00 00 00 
    47cb:	f3 44 0f 7e 8c 24 f0 	movq   0xf0(%rsp),%xmm9
    47d2:	00 00 00 
    47d5:	f3 44 0f 7e 94 24 00 	movq   0x100(%rsp),%xmm10
    47dc:	01 00 00 
    47df:	f3 44 0f 7e 9c 24 10 	movq   0x110(%rsp),%xmm11
    47e6:	01 00 00 
    47e9:	f3 44 0f 7e a4 24 20 	movq   0x120(%rsp),%xmm12
    47f0:	01 00 00 
    47f3:	f3 44 0f 7e ac 24 30 	movq   0x130(%rsp),%xmm13
    47fa:	01 00 00 
    47fd:	f3 44 0f 7e b4 24 40 	movq   0x140(%rsp),%xmm14
    4804:	01 00 00 
    4807:	f3 44 0f 7e bc 24 50 	movq   0x150(%rsp),%xmm15
    480e:	01 00 00 
    4811:	48 8b 94 24 60 01 00 	mov    0x160(%rsp),%rdx
    4818:	00 
    4819:	48 8d a4 24 68 01 00 	lea    0x168(%rsp),%rsp
    4820:	00 
    4821:	b0 7f                	mov    $0x7f,%al
    4823:	c3                   	retq   

0000000000004824 <__afl_fork_resume>:
    4824:	48 c7 c7 c4 00 00 00 	mov    $0xc4,%rdi
    482b:	e8 e0 d1 ff ff       	callq  1a10 <close@plt>
    4830:	48 c7 c7 c5 00 00 00 	mov    $0xc5,%rdi
    4837:	e8 d4 d1 ff ff       	callq  1a10 <close@plt>
    483c:	4c 89 e4             	mov    %r12,%rsp
    483f:	41 5c                	pop    %r12
    4841:	48 8b 04 24          	mov    (%rsp),%rax
    4845:	48 8b 4c 24 08       	mov    0x8(%rsp),%rcx
    484a:	48 8b 7c 24 10       	mov    0x10(%rsp),%rdi
    484f:	48 8b 74 24 20       	mov    0x20(%rsp),%rsi
    4854:	4c 8b 44 24 28       	mov    0x28(%rsp),%r8
    4859:	4c 8b 4c 24 30       	mov    0x30(%rsp),%r9
    485e:	4c 8b 54 24 38       	mov    0x38(%rsp),%r10
    4863:	4c 8b 5c 24 40       	mov    0x40(%rsp),%r11
    4868:	f3 0f 7e 44 24 60    	movq   0x60(%rsp),%xmm0
    486e:	f3 0f 7e 4c 24 70    	movq   0x70(%rsp),%xmm1
    4874:	f3 0f 7e 94 24 80 00 	movq   0x80(%rsp),%xmm2
    487b:	00 00 
    487d:	f3 0f 7e 9c 24 90 00 	movq   0x90(%rsp),%xmm3
    4884:	00 00 
    4886:	f3 0f 7e a4 24 a0 00 	movq   0xa0(%rsp),%xmm4
    488d:	00 00 
    488f:	f3 0f 7e ac 24 b0 00 	movq   0xb0(%rsp),%xmm5
    4896:	00 00 
    4898:	f3 0f 7e b4 24 c0 00 	movq   0xc0(%rsp),%xmm6
    489f:	00 00 
    48a1:	f3 0f 7e bc 24 d0 00 	movq   0xd0(%rsp),%xmm7
    48a8:	00 00 
    48aa:	f3 44 0f 7e 84 24 e0 	movq   0xe0(%rsp),%xmm8
    48b1:	00 00 00 
    48b4:	f3 44 0f 7e 8c 24 f0 	movq   0xf0(%rsp),%xmm9
    48bb:	00 00 00 
    48be:	f3 44 0f 7e 94 24 00 	movq   0x100(%rsp),%xmm10
    48c5:	01 00 00 
    48c8:	f3 44 0f 7e 9c 24 10 	movq   0x110(%rsp),%xmm11
    48cf:	01 00 00 
    48d2:	f3 44 0f 7e a4 24 20 	movq   0x120(%rsp),%xmm12
    48d9:	01 00 00 
    48dc:	f3 44 0f 7e ac 24 30 	movq   0x130(%rsp),%xmm13
    48e3:	01 00 00 
    48e6:	f3 44 0f 7e b4 24 40 	movq   0x140(%rsp),%xmm14
    48ed:	01 00 00 
    48f0:	f3 44 0f 7e bc 24 50 	movq   0x150(%rsp),%xmm15
    48f7:	01 00 00 
    48fa:	48 8b 94 24 60 01 00 	mov    0x160(%rsp),%rdx
    4901:	00 
    4902:	48 8d a4 24 68 01 00 	lea    0x168(%rsp),%rsp
    4909:	00 
    490a:	b0 00                	mov    $0x0,%al
    490c:	c3                   	retq   

000000000000490d <.SHM_ENV_CMP>:
    490d:	53                   	push   %rbx
    490e:	48                   	rex.W
    490f:	4d 5f                	rex.WRB pop %r15
    4911:	45                   	rex.RB
    4912:	4e 56                	rex.WRX push %rsi
    4914:	5f                   	pop    %rdi
    4915:	43                   	rex.XB
    4916:	4d 50                	rex.WRB push %r8
	...

0000000000004919 <.SHM_ENV_EDGE>:
    4919:	53                   	push   %rbx
    491a:	48                   	rex.W
    491b:	4d 5f                	rex.WRB pop %r15
    491d:	45                   	rex.RB
    491e:	4e 56                	rex.WRX push %rsi
    4920:	5f                   	pop    %rdi
    4921:	45                   	rex.RB
    4922:	44                   	rex.R
    4923:	47                   	rex.RXB
    4924:	45                   	rex.RB
	...

0000000000004926 <.SHM_ENV_GCNT>:
    4926:	53                   	push   %rbx
    4927:	48                   	rex.W
    4928:	4d 5f                	rex.WRB pop %r15
    492a:	45                   	rex.RB
    492b:	4e 56                	rex.WRX push %rsi
    492d:	5f                   	pop    %rdi
    492e:	47                   	rex.RXB
    492f:	43                   	rex.XB
    4930:	4e 54                	rex.WRX push %rsp
	...

0000000000004933 <.serverSetupError>:
    4933:	20 53 65             	and    %dl,0x65(%rbx)
    4936:	72 76                	jb     49ae <_storeEdge+0x1e>
    4938:	65 72 20             	gs jb  495b <.serverSetupError+0x28>
    493b:	53                   	push   %rbx
    493c:	65 74 75             	gs je  49b4 <_storeEdge+0x24>
    493f:	70 20                	jo     4961 <.serverSetupError+0x2e>
    4941:	45 72 72             	rex.RB jb 49b6 <_storeEdge+0x26>
    4944:	6f                   	outsl  %ds:(%rsi),(%dx)
    4945:	72 2c                	jb     4973 <.serverDied+0x9>
    4947:	20 63 6f             	and    %ah,0x6f(%rbx)
    494a:	6e                   	outsb  %ds:(%rsi),(%dx)
    494b:	74 69                	je     49b6 <_storeEdge+0x26>
    494d:	6e                   	outsb  %ds:(%rsi),(%dx)
    494e:	75 65                	jne    49b5 <_storeEdge+0x25>
    4950:	20 72 75             	and    %dh,0x75(%rdx)
    4953:	6e                   	outsb  %ds:(%rsi),(%dx)
    4954:	6e                   	outsb  %ds:(%rsi),(%dx)
    4955:	69 67 20 77 69 74 68 	imul   $0x68746977,0x20(%rdi),%esp
    495c:	6f                   	outsl  %ds:(%rsi),(%dx)
    495d:	75 74                	jne    49d3 <_storeEdge+0x43>
    495f:	20 73 65             	and    %dh,0x65(%rbx)
    4962:	72 76                	jb     49da <_caledgehash>
    4964:	65 72 20             	gs jb  4987 <.debug+0xa>
    4967:	0a 20                	or     (%rax),%ah
	...

000000000000496a <.serverDied>:
    496a:	20 53 65             	and    %dl,0x65(%rbx)
    496d:	72 76                	jb     49e5 <_caledgehash+0xb>
    496f:	65 72 20             	gs jb  4992 <_storeEdge+0x2>
    4972:	69 73 20 64 65 61 64 	imul   $0x64616564,0x20(%rbx),%esi
    4979:	20 0a                	and    %cl,(%rdx)
    497b:	20 00                	and    %al,(%rax)

000000000000497d <.debug>:
    497d:	64 65 62             	fs gs (bad) 
    4980:	75 67                	jne    49e9 <_caledgehash+0xf>
    4982:	20 6d 65             	and    %ch,0x65(%rbp)
    4985:	73 73                	jae    49fa <_caledgehash+0x20>
    4987:	61                   	(bad)  
    4988:	67 65 3a 20          	cmp    %gs:(%eax),%ah
    498c:	0a 20                	or     (%rax),%ah
    498e:	00                   	.byte 0x0
    498f:	90                   	nop

0000000000004990 <_storeEdge>:
    4990:	50                   	push   %rax
    4991:	53                   	push   %rbx
    4992:	51                   	push   %rcx
    4993:	52                   	push   %rdx
    4994:	48 83 3d b4 ef 74 00 	cmpq   $0x1,0x74efb4(%rip)        # 753950 <cmpPassed>
    499b:	01 
    499c:	75 3c                	jne    49da <_caledgehash>
    499e:	48 c7 05 a7 ef 74 00 	movq   $0x0,0x74efa7(%rip)        # 753950 <cmpPassed>
    49a5:	00 00 00 00 
    49a9:	48 8b 05 78 92 5f 00 	mov    0x5f9278(%rip),%rax        # 5fdc28 <edgeCnt>
    49b0:	48 c1 e0 03          	shl    $0x3,%rax
    49b4:	48 3b 05 2d 92 5f 00 	cmp    0x5f922d(%rip),%rax        # 5fdbe8 <shmSize2>
    49bb:	77 55                	ja     4a12 <_shm2Full>
    49bd:	48 8b 1d 4c ef 74 00 	mov    0x74ef4c(%rip),%rbx        # 753910 <edgehash>
    49c4:	48 8b 15 3d ef 74 00 	mov    0x74ef3d(%rip),%rdx        # 753908 <shmptr_edge>
    49cb:	48 8d 0c 10          	lea    (%rax,%rdx,1),%rcx
    49cf:	48 89 19             	mov    %rbx,(%rcx)
    49d2:	48 83 05 4e 92 5f 00 	addq   $0x1,0x5f924e(%rip)        # 5fdc28 <edgeCnt>
    49d9:	01 

00000000000049da <_caledgehash>:
    49da:	48 8b 15 2f ef 74 00 	mov    0x74ef2f(%rip),%rdx        # 753910 <edgehash>
    49e1:	48 89 d0             	mov    %rdx,%rax
    49e4:	48 c1 e0 05          	shl    $0x5,%rax
    49e8:	48 01 c2             	add    %rax,%rdx
    49eb:	48 8b 05 4e ef 74 00 	mov    0x74ef4e(%rip),%rax        # 753940 <edgeId>
    49f2:	48 01 d0             	add    %rdx,%rax
    49f5:	48 89 05 14 ef 74 00 	mov    %rax,0x74ef14(%rip)        # 753910 <edgehash>
    49fc:	48 b8 ff ff ff ff 00 	movabs $0xffffffff,%rax
    4a03:	00 00 00 
    4a06:	48 21 05 03 ef 74 00 	and    %rax,0x74ef03(%rip)        # 753910 <edgehash>
    4a0d:	5a                   	pop    %rdx
    4a0e:	59                   	pop    %rcx
    4a0f:	5b                   	pop    %rbx
    4a10:	58                   	pop    %rax
    4a11:	c3                   	retq   

0000000000004a12 <_shm2Full>:
    4a12:	48 c7 c0 0f 00 00 00 	mov    $0xf,%rax
    4a19:	5a                   	pop    %rdx
    4a1a:	59                   	pop    %rcx
    4a1b:	5b                   	pop    %rbx
    4a1c:	58                   	pop    %rax
    4a1d:	e8 8e ce ff ff       	callq  18b0 <_exit@plt>
    4a22:	66 0f 1f 44 00 00    	nopw   0x0(%rax,%rax,1)

0000000000004a28 <_storeDataFn>:
    4a28:	55                   	push   %rbp
    4a29:	48 89 e5             	mov    %rsp,%rbp
    4a2c:	50                   	push   %rax
    4a2d:	53                   	push   %rbx
    4a2e:	41 50                	push   %r8
    4a30:	41 51                	push   %r9
    4a32:	41 52                	push   %r10
    4a34:	48 8b 05 fd ee 74 00 	mov    0x74eefd(%rip),%rax        # 753938 <shmptr_gcnt>
    4a3b:	48 8b 00             	mov    (%rax),%rax
    4a3e:	48 c1 e0 03          	shl    $0x3,%rax
    4a42:	48 83 c0 30          	add    $0x30,%rax
    4a46:	48 3b 05 fb ee 74 00 	cmp    0x74eefb(%rip),%rax        # 753948 <shmSize>
    4a4d:	0f 83 8f 01 00 00    	jae    4be2 <_shmFull>
    4a53:	48 83 3d d5 ee 74 00 	cmpq   $0x0,0x74eed5(%rip)        # 753930 <shmptr_cmp>
    4a5a:	00 
    4a5b:	0f 84 99 01 00 00    	je     4bfa <_shmUninitialize>
    4a61:	48 c7 c3 00 00 00 00 	mov    $0x0,%rbx
    4a68:	48 83 e8 30          	sub    $0x30,%rax
    4a6c:	48 c1 e8 03          	shr    $0x3,%rax

0000000000004a70 <_storeloop>:
    4a70:	49 89 c2             	mov    %rax,%r10
    4a73:	49 c1 e2 03          	shl    $0x3,%r10
    4a77:	4c 03 15 b2 ee 74 00 	add    0x74eeb2(%rip),%r10        # 753930 <shmptr_cmp>
    4a7e:	49 89 d9             	mov    %rbx,%r9
    4a81:	49 c1 e1 03          	shl    $0x3,%r9
    4a85:	4c 8d 05 64 91 5f 00 	lea    0x5f9164(%rip),%r8        # 5fdbf0 <funcinptr>
    4a8c:	4d 01 c1             	add    %r8,%r9
    4a8f:	4d 8b 01             	mov    (%r9),%r8
    4a92:	4d 89 02             	mov    %r8,(%r10)
    4a95:	48 83 fb 00          	cmp    $0x0,%rbx
    4a99:	75 07                	jne    4aa2 <_no_get_cmpid>
    4a9b:	4c 89 05 86 ee 74 00 	mov    %r8,0x74ee86(%rip)        # 753928 <cmpid>

0000000000004aa2 <_no_get_cmpid>:
    4aa2:	48 ff c0             	inc    %rax
    4aa5:	48 ff c3             	inc    %rbx
    4aa8:	48 83 fb 06          	cmp    $0x6,%rbx
    4aac:	75 c2                	jne    4a70 <_storeloop>
    4aae:	48 8b 1d 83 ee 74 00 	mov    0x74ee83(%rip),%rbx        # 753938 <shmptr_gcnt>
    4ab5:	48 89 03             	mov    %rax,(%rbx)
    4ab8:	48 8b 05 69 ee 74 00 	mov    0x74ee69(%rip),%rax        # 753928 <cmpid>
    4abf:	48 c1 e0 04          	shl    $0x4,%rax
    4ac3:	48 89 c3             	mov    %rax,%rbx
    4ac6:	48 83 c3 08          	add    $0x8,%rbx
    4aca:	48 81 fb c0 5c 15 00 	cmp    $0x155cc0,%rbx
    4ad1:	0f 83 17 01 00 00    	jae    4bee <_cmpdictFull>
    4ad7:	48 8d 1d 62 91 5f 00 	lea    0x5f9162(%rip),%rbx        # 5fdc40 <cmpid_dict>
    4ade:	48 01 d8             	add    %rbx,%rax
    4ae1:	48 83 38 00          	cmpq   $0x0,(%rax)
    4ae5:	0f 84 db 00 00 00    	je     4bc6 <_insert_entry>
    4aeb:	49 c7 c0 00 00 00 00 	mov    $0x0,%r8

0000000000004af2 <_remove_repeated_cycle>:
    4af2:	4d 89 c1             	mov    %r8,%r9
    4af5:	4d 89 ca             	mov    %r9,%r10
    4af8:	49 c1 e1 02          	shl    $0x2,%r9
    4afc:	4d 01 d1             	add    %r10,%r9
    4aff:	4d 01 d1             	add    %r10,%r9
    4b02:	4c 8b 15 2f ee 74 00 	mov    0x74ee2f(%rip),%r10        # 753938 <shmptr_gcnt>
    4b09:	4d 8b 12             	mov    (%r10),%r10
    4b0c:	4c 2b 10             	sub    (%rax),%r10
    4b0f:	4c 3b 10             	cmp    (%rax),%r10
    4b12:	0f 87 9f 00 00 00    	ja     4bb7 <_no_remove_cycle>
    4b18:	4d 39 ca             	cmp    %r9,%r10
    4b1b:	76 67                	jbe    4b84 <_remove_cycle>
    4b1d:	4d 89 c1             	mov    %r8,%r9
    4b20:	49 83 c1 01          	add    $0x1,%r9
    4b24:	4d 89 ca             	mov    %r9,%r10
    4b27:	49 c1 e1 02          	shl    $0x2,%r9
    4b2b:	4d 01 d1             	add    %r10,%r9
    4b2e:	4d 01 d1             	add    %r10,%r9
    4b31:	4c 8b 15 00 ee 74 00 	mov    0x74ee00(%rip),%r10        # 753938 <shmptr_gcnt>
    4b38:	4d 8b 12             	mov    (%r10),%r10
    4b3b:	4d 29 ca             	sub    %r9,%r10
    4b3e:	49 c1 e2 03          	shl    $0x3,%r10
    4b42:	4c 8b 0d e7 ed 74 00 	mov    0x74ede7(%rip),%r9        # 753930 <shmptr_cmp>
    4b49:	4d 01 d1             	add    %r10,%r9
    4b4c:	49 8b 19             	mov    (%r9),%rbx
    4b4f:	4d 89 c1             	mov    %r8,%r9
    4b52:	49 83 c1 01          	add    $0x1,%r9
    4b56:	4d 89 ca             	mov    %r9,%r10
    4b59:	49 c1 e1 02          	shl    $0x2,%r9
    4b5d:	4d 01 d1             	add    %r10,%r9
    4b60:	4d 01 d1             	add    %r10,%r9
    4b63:	4c 8b 10             	mov    (%rax),%r10
    4b66:	4d 29 ca             	sub    %r9,%r10
    4b69:	49 c1 e2 03          	shl    $0x3,%r10
    4b6d:	4c 8b 0d bc ed 74 00 	mov    0x74edbc(%rip),%r9        # 753930 <shmptr_cmp>
    4b74:	4d 01 d1             	add    %r10,%r9
    4b77:	49 3b 19             	cmp    (%r9),%rbx
    4b7a:	75 3b                	jne    4bb7 <_no_remove_cycle>
    4b7c:	49 ff c0             	inc    %r8
    4b7f:	e9 6e ff ff ff       	jmpq   4af2 <_remove_repeated_cycle>

0000000000004b84 <_remove_cycle>:
    4b84:	48 89 15 8d ed 74 00 	mov    %rdx,0x74ed8d(%rip)        # 753918 <tmpquadone>
    4b8b:	48 8b 10             	mov    (%rax),%rdx
    4b8e:	48 8b 05 a3 ed 74 00 	mov    0x74eda3(%rip),%rax        # 753938 <shmptr_gcnt>
    4b95:	48 89 10             	mov    %rdx,(%rax)
    4b98:	89 d0                	mov    %edx,%eax
    4b9a:	48 c1 ea 20          	shr    $0x20,%rdx
    4b9e:	49 c7 c0 06 00 00 00 	mov    $0x6,%r8
    4ba5:	49 f7 f0             	div    %r8
    4ba8:	89 05 7a 90 5f 00    	mov    %eax,0x5f907a(%rip)        # 5fdc28 <edgeCnt>
    4bae:	48 8b 15 63 ed 74 00 	mov    0x74ed63(%rip),%rdx        # 753918 <tmpquadone>
    4bb5:	eb 1c                	jmp    4bd3 <_skipstoredata>

0000000000004bb7 <_no_remove_cycle>:
    4bb7:	48 8b 1d 7a ed 74 00 	mov    0x74ed7a(%rip),%rbx        # 753938 <shmptr_gcnt>
    4bbe:	48 8b 1b             	mov    (%rbx),%rbx
    4bc1:	48 89 18             	mov    %rbx,(%rax)
    4bc4:	eb 0d                	jmp    4bd3 <_skipstoredata>

0000000000004bc6 <_insert_entry>:
    4bc6:	48 8b 1d 6b ed 74 00 	mov    0x74ed6b(%rip),%rbx        # 753938 <shmptr_gcnt>
    4bcd:	48 8b 1b             	mov    (%rbx),%rbx
    4bd0:	48 89 18             	mov    %rbx,(%rax)

0000000000004bd3 <_skipstoredata>:
    4bd3:	41 5a                	pop    %r10
    4bd5:	41 59                	pop    %r9
    4bd7:	41 58                	pop    %r8
    4bd9:	5b                   	pop    %rbx
    4bda:	58                   	pop    %rax
    4bdb:	48 89 ec             	mov    %rbp,%rsp
    4bde:	5d                   	pop    %rbp
    4bdf:	c2 08 00             	retq   $0x8

0000000000004be2 <_shmFull>:
    4be2:	48 c7 c0 0f 00 00 00 	mov    $0xf,%rax
    4be9:	e8 c2 cc ff ff       	callq  18b0 <_exit@plt>

0000000000004bee <_cmpdictFull>:
    4bee:	48 c7 c0 0e 00 00 00 	mov    $0xe,%rax
    4bf5:	e8 b6 cc ff ff       	callq  18b0 <_exit@plt>

0000000000004bfa <_shmUninitialize>:
    4bfa:	48 89 ec             	mov    %rbp,%rsp
    4bfd:	5d                   	pop    %rbp
    4bfe:	48 31 c0             	xor    %rax,%rax
    4c01:	c2 08 00             	retq   $0x8
    4c04:	0f 1f 40 00          	nopl   0x0(%rax)
    4c08:	9f                   	lahf   
    4c09:	0f 90 c0             	seto   %al
    4c0c:	0f 1f 40 00          	nopl   0x0(%rax)

0000000000004c10 <__afl_setup_first>:
    4c10:	48 8d a4 24 98 fe ff 	lea    -0x168(%rsp),%rsp
    4c17:	ff 
    4c18:	48 89 04 24          	mov    %rax,(%rsp)
    4c1c:	48 89 4c 24 08       	mov    %rcx,0x8(%rsp)
    4c21:	48 89 7c 24 10       	mov    %rdi,0x10(%rsp)
    4c26:	48 89 74 24 20       	mov    %rsi,0x20(%rsp)
    4c2b:	4c 89 44 24 28       	mov    %r8,0x28(%rsp)
    4c30:	4c 89 4c 24 30       	mov    %r9,0x30(%rsp)
    4c35:	4c 89 54 24 38       	mov    %r10,0x38(%rsp)
    4c3a:	4c 89 5c 24 40       	mov    %r11,0x40(%rsp)
    4c3f:	66 0f d6 44 24 60    	movq   %xmm0,0x60(%rsp)
    4c45:	66 0f d6 4c 24 70    	movq   %xmm1,0x70(%rsp)
    4c4b:	66 0f d6 94 24 80 00 	movq   %xmm2,0x80(%rsp)
    4c52:	00 00 
    4c54:	66 0f d6 9c 24 90 00 	movq   %xmm3,0x90(%rsp)
    4c5b:	00 00 
    4c5d:	66 0f d6 a4 24 a0 00 	movq   %xmm4,0xa0(%rsp)
    4c64:	00 00 
    4c66:	66 0f d6 ac 24 b0 00 	movq   %xmm5,0xb0(%rsp)
    4c6d:	00 00 
    4c6f:	66 0f d6 b4 24 c0 00 	movq   %xmm6,0xc0(%rsp)
    4c76:	00 00 
    4c78:	66 0f d6 bc 24 d0 00 	movq   %xmm7,0xd0(%rsp)
    4c7f:	00 00 
    4c81:	66 44 0f d6 84 24 e0 	movq   %xmm8,0xe0(%rsp)
    4c88:	00 00 00 
    4c8b:	66 44 0f d6 8c 24 f0 	movq   %xmm9,0xf0(%rsp)
    4c92:	00 00 00 
    4c95:	66 44 0f d6 94 24 00 	movq   %xmm10,0x100(%rsp)
    4c9c:	01 00 00 
    4c9f:	66 44 0f d6 9c 24 10 	movq   %xmm11,0x110(%rsp)
    4ca6:	01 00 00 
    4ca9:	66 44 0f d6 a4 24 20 	movq   %xmm12,0x120(%rsp)
    4cb0:	01 00 00 
    4cb3:	66 44 0f d6 ac 24 30 	movq   %xmm13,0x130(%rsp)
    4cba:	01 00 00 
    4cbd:	66 44 0f d6 b4 24 40 	movq   %xmm14,0x140(%rsp)
    4cc4:	01 00 00 
    4cc7:	66 44 0f d6 bc 24 50 	movq   %xmm15,0x150(%rsp)
    4cce:	01 00 00 
    4cd1:	48 89 94 24 60 01 00 	mov    %rdx,0x160(%rsp)
    4cd8:	00 
    4cd9:	41 54                	push   %r12
    4cdb:	49 89 e4             	mov    %rsp,%r12
    4cde:	48 83 ec 10          	sub    $0x10,%rsp
    4ce2:	48 83 e4 f0          	and    $0xfffffffffffffff0,%rsp
    4ce6:	48 c7 05 57 ec 74 00 	movq   $0x100000,0x74ec57(%rip)        # 753948 <shmSize>
    4ced:	00 00 10 00 
    4cf1:	48 c7 05 ec 8e 5f 00 	movq   $0x100000,0x5f8eec(%rip)        # 5fdbe8 <shmSize2>
    4cf8:	00 00 10 00 
    4cfc:	48 8d 3d 4b 03 00 00 	lea    0x34b(%rip),%rdi        # 504e <.SHM_ENV_GCNT>
    4d03:	e8 58 cb ff ff       	callq  1860 <getenv@plt>
    4d08:	48 85 c0             	test   %rax,%rax
    4d0b:	0f 84 6a 01 00 00    	je     4e7b <__afl_setup_abort>
    4d11:	48 89 c7             	mov    %rax,%rdi
    4d14:	e8 d7 ce ff ff       	callq  1bf0 <atoi@plt>
    4d19:	48 31 d2             	xor    %rdx,%rdx
    4d1c:	48 31 f6             	xor    %rsi,%rsi
    4d1f:	48 89 c7             	mov    %rax,%rdi
    4d22:	e8 a9 ce ff ff       	callq  1bd0 <shmat@plt>
    4d27:	48 83 f8 ff          	cmp    $0xffffffffffffffff,%rax
    4d2b:	0f 84 4a 01 00 00    	je     4e7b <__afl_setup_abort>
    4d31:	48 89 05 00 ec 74 00 	mov    %rax,0x74ec00(%rip)        # 753938 <shmptr_gcnt>
    4d38:	48 8d 3d f6 02 00 00 	lea    0x2f6(%rip),%rdi        # 5035 <.SHM_ENV_CMP>
    4d3f:	e8 1c cb ff ff       	callq  1860 <getenv@plt>
    4d44:	48 85 c0             	test   %rax,%rax
    4d47:	0f 84 2e 01 00 00    	je     4e7b <__afl_setup_abort>
    4d4d:	48 89 c7             	mov    %rax,%rdi
    4d50:	e8 9b ce ff ff       	callq  1bf0 <atoi@plt>
    4d55:	48 31 d2             	xor    %rdx,%rdx
    4d58:	48 31 f6             	xor    %rsi,%rsi
    4d5b:	48 89 c7             	mov    %rax,%rdi
    4d5e:	e8 6d ce ff ff       	callq  1bd0 <shmat@plt>
    4d63:	48 83 f8 ff          	cmp    $0xffffffffffffffff,%rax
    4d67:	0f 84 0e 01 00 00    	je     4e7b <__afl_setup_abort>
    4d6d:	48 89 05 bc eb 74 00 	mov    %rax,0x74ebbc(%rip)        # 753930 <shmptr_cmp>
    4d74:	48 8d 3d c6 02 00 00 	lea    0x2c6(%rip),%rdi        # 5041 <.SHM_ENV_EDGE>
    4d7b:	e8 e0 ca ff ff       	callq  1860 <getenv@plt>
    4d80:	48 85 c0             	test   %rax,%rax
    4d83:	0f 84 f2 00 00 00    	je     4e7b <__afl_setup_abort>
    4d89:	48 89 c7             	mov    %rax,%rdi
    4d8c:	e8 5f ce ff ff       	callq  1bf0 <atoi@plt>
    4d91:	48 31 d2             	xor    %rdx,%rdx
    4d94:	48 31 f6             	xor    %rsi,%rsi
    4d97:	48 89 c7             	mov    %rax,%rdi
    4d9a:	e8 31 ce ff ff       	callq  1bd0 <shmat@plt>
    4d9f:	48 83 f8 ff          	cmp    $0xffffffffffffffff,%rax
    4da3:	0f 84 d2 00 00 00    	je     4e7b <__afl_setup_abort>
    4da9:	48 89 05 58 eb 74 00 	mov    %rax,0x74eb58(%rip)        # 753908 <shmptr_edge>

0000000000004db0 <__afl_forkserver>:
    4db0:	48 c7 c2 04 00 00 00 	mov    $0x4,%rdx
    4db7:	48 8d 35 5e 8c 5f 00 	lea    0x5f8c5e(%rip),%rsi        # 5fda1c <__afl_temp>
    4dbe:	48 c7 c7 c5 00 00 00 	mov    $0xc5,%rdi
    4dc5:	e8 06 cb ff ff       	callq  18d0 <write@plt>
    4dca:	48 83 f8 04          	cmp    $0x4,%rax
    4dce:	0f 85 78 01 00 00    	jne    4f4c <__afl_fork_resume>

0000000000004dd4 <__afl_fork_wait_loop>:
    4dd4:	48 c7 c2 04 00 00 00 	mov    $0x4,%rdx
    4ddb:	48 8d 35 3a 8c 5f 00 	lea    0x5f8c3a(%rip),%rsi        # 5fda1c <__afl_temp>
    4de2:	48 c7 c7 c4 00 00 00 	mov    $0xc4,%rdi
    4de9:	e8 52 cc ff ff       	callq  1a40 <read@plt>
    4dee:	48 83 f8 04          	cmp    $0x4,%rax
    4df2:	75 70                	jne    4e64 <__afl_die>
    4df4:	e8 57 ce ff ff       	callq  1c50 <fork@plt>
    4df9:	48 83 f8 00          	cmp    $0x0,%rax
    4dfd:	7c 65                	jl     4e64 <__afl_die>
    4dff:	0f 84 47 01 00 00    	je     4f4c <__afl_fork_resume>
    4e05:	89 05 0d 8c 5f 00    	mov    %eax,0x5f8c0d(%rip)        # 5fda18 <__afl_fork_pid>
    4e0b:	48 c7 c2 04 00 00 00 	mov    $0x4,%rdx
    4e12:	48 8d 35 ff 8b 5f 00 	lea    0x5f8bff(%rip),%rsi        # 5fda18 <__afl_fork_pid>
    4e19:	48 c7 c7 c5 00 00 00 	mov    $0xc5,%rdi
    4e20:	e8 ab ca ff ff       	callq  18d0 <write@plt>
    4e25:	48 c7 c2 00 00 00 00 	mov    $0x0,%rdx
    4e2c:	48 8d 35 e9 8b 5f 00 	lea    0x5f8be9(%rip),%rsi        # 5fda1c <__afl_temp>
    4e33:	48 8b 3d de 8b 5f 00 	mov    0x5f8bde(%rip),%rdi        # 5fda18 <__afl_fork_pid>
    4e3a:	e8 41 cd ff ff       	callq  1b80 <waitpid@plt>
    4e3f:	48 83 f8 00          	cmp    $0x0,%rax
    4e43:	7e 1f                	jle    4e64 <__afl_die>
    4e45:	48 c7 c2 04 00 00 00 	mov    $0x4,%rdx
    4e4c:	48 8d 35 c9 8b 5f 00 	lea    0x5f8bc9(%rip),%rsi        # 5fda1c <__afl_temp>
    4e53:	48 c7 c7 c5 00 00 00 	mov    $0xc5,%rdi
    4e5a:	e8 71 ca ff ff       	callq  18d0 <write@plt>
    4e5f:	e9 70 ff ff ff       	jmpq   4dd4 <__afl_fork_wait_loop>

0000000000004e64 <__afl_die>:
    4e64:	48 8d 3d 27 02 00 00 	lea    0x227(%rip),%rdi        # 5092 <.serverDied>
    4e6b:	48 31 c0             	xor    %rax,%rax
    4e6e:	e8 1d cb ff ff       	callq  1990 <printf@plt>
    4e73:	48 31 c0             	xor    %rax,%rax
    4e76:	e8 35 ca ff ff       	callq  18b0 <_exit@plt>

0000000000004e7b <__afl_setup_abort>:
    4e7b:	4c 89 e4             	mov    %r12,%rsp
    4e7e:	41 5c                	pop    %r12
    4e80:	48 8b 04 24          	mov    (%rsp),%rax
    4e84:	48 8b 4c 24 08       	mov    0x8(%rsp),%rcx
    4e89:	48 8b 7c 24 10       	mov    0x10(%rsp),%rdi
    4e8e:	48 8b 74 24 20       	mov    0x20(%rsp),%rsi
    4e93:	4c 8b 44 24 28       	mov    0x28(%rsp),%r8
    4e98:	4c 8b 4c 24 30       	mov    0x30(%rsp),%r9
    4e9d:	4c 8b 54 24 38       	mov    0x38(%rsp),%r10
    4ea2:	4c 8b 5c 24 40       	mov    0x40(%rsp),%r11
    4ea7:	f3 0f 7e 44 24 60    	movq   0x60(%rsp),%xmm0
    4ead:	f3 0f 7e 4c 24 70    	movq   0x70(%rsp),%xmm1
    4eb3:	f3 0f 7e 94 24 80 00 	movq   0x80(%rsp),%xmm2
    4eba:	00 00 
    4ebc:	f3 0f 7e 9c 24 90 00 	movq   0x90(%rsp),%xmm3
    4ec3:	00 00 
    4ec5:	f3 0f 7e a4 24 a0 00 	movq   0xa0(%rsp),%xmm4
    4ecc:	00 00 
    4ece:	f3 0f 7e ac 24 b0 00 	movq   0xb0(%rsp),%xmm5
    4ed5:	00 00 
    4ed7:	f3 0f 7e b4 24 c0 00 	movq   0xc0(%rsp),%xmm6
    4ede:	00 00 
    4ee0:	f3 0f 7e bc 24 d0 00 	movq   0xd0(%rsp),%xmm7
    4ee7:	00 00 
    4ee9:	f3 44 0f 7e 84 24 e0 	movq   0xe0(%rsp),%xmm8
    4ef0:	00 00 00 
    4ef3:	f3 44 0f 7e 8c 24 f0 	movq   0xf0(%rsp),%xmm9
    4efa:	00 00 00 
    4efd:	f3 44 0f 7e 94 24 00 	movq   0x100(%rsp),%xmm10
    4f04:	01 00 00 
    4f07:	f3 44 0f 7e 9c 24 10 	movq   0x110(%rsp),%xmm11
    4f0e:	01 00 00 
    4f11:	f3 44 0f 7e a4 24 20 	movq   0x120(%rsp),%xmm12
    4f18:	01 00 00 
    4f1b:	f3 44 0f 7e ac 24 30 	movq   0x130(%rsp),%xmm13
    4f22:	01 00 00 
    4f25:	f3 44 0f 7e b4 24 40 	movq   0x140(%rsp),%xmm14
    4f2c:	01 00 00 
    4f2f:	f3 44 0f 7e bc 24 50 	movq   0x150(%rsp),%xmm15
    4f36:	01 00 00 
    4f39:	48 8b 94 24 60 01 00 	mov    0x160(%rsp),%rdx
    4f40:	00 
    4f41:	48 8d a4 24 68 01 00 	lea    0x168(%rsp),%rsp
    4f48:	00 
    4f49:	b0 7f                	mov    $0x7f,%al
    4f4b:	c3                   	retq   

0000000000004f4c <__afl_fork_resume>:
    4f4c:	48 c7 c7 c4 00 00 00 	mov    $0xc4,%rdi
    4f53:	e8 b8 ca ff ff       	callq  1a10 <close@plt>
    4f58:	48 c7 c7 c5 00 00 00 	mov    $0xc5,%rdi
    4f5f:	e8 ac ca ff ff       	callq  1a10 <close@plt>
    4f64:	4c 89 e4             	mov    %r12,%rsp
    4f67:	41 5c                	pop    %r12
    4f69:	48 8b 04 24          	mov    (%rsp),%rax
    4f6d:	48 8b 4c 24 08       	mov    0x8(%rsp),%rcx
    4f72:	48 8b 7c 24 10       	mov    0x10(%rsp),%rdi
    4f77:	48 8b 74 24 20       	mov    0x20(%rsp),%rsi
    4f7c:	4c 8b 44 24 28       	mov    0x28(%rsp),%r8
    4f81:	4c 8b 4c 24 30       	mov    0x30(%rsp),%r9
    4f86:	4c 8b 54 24 38       	mov    0x38(%rsp),%r10
    4f8b:	4c 8b 5c 24 40       	mov    0x40(%rsp),%r11
    4f90:	f3 0f 7e 44 24 60    	movq   0x60(%rsp),%xmm0
    4f96:	f3 0f 7e 4c 24 70    	movq   0x70(%rsp),%xmm1
    4f9c:	f3 0f 7e 94 24 80 00 	movq   0x80(%rsp),%xmm2
    4fa3:	00 00 
    4fa5:	f3 0f 7e 9c 24 90 00 	movq   0x90(%rsp),%xmm3
    4fac:	00 00 
    4fae:	f3 0f 7e a4 24 a0 00 	movq   0xa0(%rsp),%xmm4
    4fb5:	00 00 
    4fb7:	f3 0f 7e ac 24 b0 00 	movq   0xb0(%rsp),%xmm5
    4fbe:	00 00 
    4fc0:	f3 0f 7e b4 24 c0 00 	movq   0xc0(%rsp),%xmm6
    4fc7:	00 00 
    4fc9:	f3 0f 7e bc 24 d0 00 	movq   0xd0(%rsp),%xmm7
    4fd0:	00 00 
    4fd2:	f3 44 0f 7e 84 24 e0 	movq   0xe0(%rsp),%xmm8
    4fd9:	00 00 00 
    4fdc:	f3 44 0f 7e 8c 24 f0 	movq   0xf0(%rsp),%xmm9
    4fe3:	00 00 00 
    4fe6:	f3 44 0f 7e 94 24 00 	movq   0x100(%rsp),%xmm10
    4fed:	01 00 00 
    4ff0:	f3 44 0f 7e 9c 24 10 	movq   0x110(%rsp),%xmm11
    4ff7:	01 00 00 
    4ffa:	f3 44 0f 7e a4 24 20 	movq   0x120(%rsp),%xmm12
    5001:	01 00 00 
    5004:	f3 44 0f 7e ac 24 30 	movq   0x130(%rsp),%xmm13
    500b:	01 00 00 
    500e:	f3 44 0f 7e b4 24 40 	movq   0x140(%rsp),%xmm14
    5015:	01 00 00 
    5018:	f3 44 0f 7e bc 24 50 	movq   0x150(%rsp),%xmm15
    501f:	01 00 00 
    5022:	48 8b 94 24 60 01 00 	mov    0x160(%rsp),%rdx
    5029:	00 
    502a:	48 8d a4 24 68 01 00 	lea    0x168(%rsp),%rsp
    5031:	00 
    5032:	b0 00                	mov    $0x0,%al
    5034:	c3                   	retq   

0000000000005035 <.SHM_ENV_CMP>:
    5035:	53                   	push   %rbx
    5036:	48                   	rex.W
    5037:	4d 5f                	rex.WRB pop %r15
    5039:	45                   	rex.RB
    503a:	4e 56                	rex.WRX push %rsi
    503c:	5f                   	pop    %rdi
    503d:	43                   	rex.XB
    503e:	4d 50                	rex.WRB push %r8
	...

0000000000005041 <.SHM_ENV_EDGE>:
    5041:	53                   	push   %rbx
    5042:	48                   	rex.W
    5043:	4d 5f                	rex.WRB pop %r15
    5045:	45                   	rex.RB
    5046:	4e 56                	rex.WRX push %rsi
    5048:	5f                   	pop    %rdi
    5049:	45                   	rex.RB
    504a:	44                   	rex.R
    504b:	47                   	rex.RXB
    504c:	45                   	rex.RB
	...

000000000000504e <.SHM_ENV_GCNT>:
    504e:	53                   	push   %rbx
    504f:	48                   	rex.W
    5050:	4d 5f                	rex.WRB pop %r15
    5052:	45                   	rex.RB
    5053:	4e 56                	rex.WRX push %rsi
    5055:	5f                   	pop    %rdi
    5056:	47                   	rex.RXB
    5057:	43                   	rex.XB
    5058:	4e 54                	rex.WRX push %rsp
	...

000000000000505b <.serverSetupError>:
    505b:	20 53 65             	and    %dl,0x65(%rbx)
    505e:	72 76                	jb     50d6 <_storeEdge+0x1e>
    5060:	65 72 20             	gs jb  5083 <.serverSetupError+0x28>
    5063:	53                   	push   %rbx
    5064:	65 74 75             	gs je  50dc <_storeEdge+0x24>
    5067:	70 20                	jo     5089 <.serverSetupError+0x2e>
    5069:	45 72 72             	rex.RB jb 50de <_storeEdge+0x26>
    506c:	6f                   	outsl  %ds:(%rsi),(%dx)
    506d:	72 2c                	jb     509b <.serverDied+0x9>
    506f:	20 63 6f             	and    %ah,0x6f(%rbx)
    5072:	6e                   	outsb  %ds:(%rsi),(%dx)
    5073:	74 69                	je     50de <_storeEdge+0x26>
    5075:	6e                   	outsb  %ds:(%rsi),(%dx)
    5076:	75 65                	jne    50dd <_storeEdge+0x25>
    5078:	20 72 75             	and    %dh,0x75(%rdx)
    507b:	6e                   	outsb  %ds:(%rsi),(%dx)
    507c:	6e                   	outsb  %ds:(%rsi),(%dx)
    507d:	69 67 20 77 69 74 68 	imul   $0x68746977,0x20(%rdi),%esp
    5084:	6f                   	outsl  %ds:(%rsi),(%dx)
    5085:	75 74                	jne    50fb <_storeEdge+0x43>
    5087:	20 73 65             	and    %dh,0x65(%rbx)
    508a:	72 76                	jb     5102 <_caledgehash>
    508c:	65 72 20             	gs jb  50af <.debug+0xa>
    508f:	0a 20                	or     (%rax),%ah
	...

0000000000005092 <.serverDied>:
    5092:	20 53 65             	and    %dl,0x65(%rbx)
    5095:	72 76                	jb     510d <_caledgehash+0xb>
    5097:	65 72 20             	gs jb  50ba <_storeEdge+0x2>
    509a:	69 73 20 64 65 61 64 	imul   $0x64616564,0x20(%rbx),%esi
    50a1:	20 0a                	and    %cl,(%rdx)
    50a3:	20 00                	and    %al,(%rax)

00000000000050a5 <.debug>:
    50a5:	64 65 62             	fs gs (bad) 
    50a8:	75 67                	jne    5111 <_caledgehash+0xf>
    50aa:	20 6d 65             	and    %ch,0x65(%rbp)
    50ad:	73 73                	jae    5122 <_caledgehash+0x20>
    50af:	61                   	(bad)  
    50b0:	67 65 3a 20          	cmp    %gs:(%eax),%ah
    50b4:	0a 20                	or     (%rax),%ah
    50b6:	00                   	.byte 0x0
    50b7:	90                   	nop

00000000000050b8 <_storeEdge>:
    50b8:	50                   	push   %rax
    50b9:	53                   	push   %rbx
    50ba:	51                   	push   %rcx
    50bb:	52                   	push   %rdx
    50bc:	48 83 3d 8c e8 74 00 	cmpq   $0x1,0x74e88c(%rip)        # 753950 <cmpPassed>
    50c3:	01 
    50c4:	75 3c                	jne    5102 <_caledgehash>
    50c6:	48 c7 05 7f e8 74 00 	movq   $0x0,0x74e87f(%rip)        # 753950 <cmpPassed>
    50cd:	00 00 00 00 
    50d1:	48 8b 05 50 8b 5f 00 	mov    0x5f8b50(%rip),%rax        # 5fdc28 <edgeCnt>
    50d8:	48 c1 e0 03          	shl    $0x3,%rax
    50dc:	48 3b 05 05 8b 5f 00 	cmp    0x5f8b05(%rip),%rax        # 5fdbe8 <shmSize2>
    50e3:	77 55                	ja     513a <_shm2Full>
    50e5:	48 8b 1d 24 e8 74 00 	mov    0x74e824(%rip),%rbx        # 753910 <edgehash>
    50ec:	48 8b 15 15 e8 74 00 	mov    0x74e815(%rip),%rdx        # 753908 <shmptr_edge>
    50f3:	48 8d 0c 10          	lea    (%rax,%rdx,1),%rcx
    50f7:	48 89 19             	mov    %rbx,(%rcx)
    50fa:	48 83 05 26 8b 5f 00 	addq   $0x1,0x5f8b26(%rip)        # 5fdc28 <edgeCnt>
    5101:	01 

0000000000005102 <_caledgehash>:
    5102:	48 8b 15 07 e8 74 00 	mov    0x74e807(%rip),%rdx        # 753910 <edgehash>
    5109:	48 89 d0             	mov    %rdx,%rax
    510c:	48 c1 e0 05          	shl    $0x5,%rax
    5110:	48 01 c2             	add    %rax,%rdx
    5113:	48 8b 05 26 e8 74 00 	mov    0x74e826(%rip),%rax        # 753940 <edgeId>
    511a:	48 01 d0             	add    %rdx,%rax
    511d:	48 89 05 ec e7 74 00 	mov    %rax,0x74e7ec(%rip)        # 753910 <edgehash>
    5124:	48 b8 ff ff ff ff 00 	movabs $0xffffffff,%rax
    512b:	00 00 00 
    512e:	48 21 05 db e7 74 00 	and    %rax,0x74e7db(%rip)        # 753910 <edgehash>
    5135:	5a                   	pop    %rdx
    5136:	59                   	pop    %rcx
    5137:	5b                   	pop    %rbx
    5138:	58                   	pop    %rax
    5139:	c3                   	retq   

000000000000513a <_shm2Full>:
    513a:	48 c7 c0 0f 00 00 00 	mov    $0xf,%rax
    5141:	5a                   	pop    %rdx
    5142:	59                   	pop    %rcx
    5143:	5b                   	pop    %rbx
    5144:	58                   	pop    %rax
    5145:	e8 66 c7 ff ff       	callq  18b0 <_exit@plt>
    514a:	66 0f 1f 44 00 00    	nopw   0x0(%rax,%rax,1)

0000000000005150 <_storeDataFn>:
    5150:	55                   	push   %rbp
    5151:	48 89 e5             	mov    %rsp,%rbp
    5154:	50                   	push   %rax
    5155:	53                   	push   %rbx
    5156:	41 50                	push   %r8
    5158:	41 51                	push   %r9
    515a:	41 52                	push   %r10
    515c:	48 8b 05 d5 e7 74 00 	mov    0x74e7d5(%rip),%rax        # 753938 <shmptr_gcnt>
    5163:	48 8b 00             	mov    (%rax),%rax
    5166:	48 c1 e0 03          	shl    $0x3,%rax
    516a:	48 83 c0 30          	add    $0x30,%rax
    516e:	48 3b 05 d3 e7 74 00 	cmp    0x74e7d3(%rip),%rax        # 753948 <shmSize>
    5175:	0f 83 8f 01 00 00    	jae    530a <_shmFull>
    517b:	48 83 3d ad e7 74 00 	cmpq   $0x0,0x74e7ad(%rip)        # 753930 <shmptr_cmp>
    5182:	00 
    5183:	0f 84 99 01 00 00    	je     5322 <_shmUninitialize>
    5189:	48 c7 c3 00 00 00 00 	mov    $0x0,%rbx
    5190:	48 83 e8 30          	sub    $0x30,%rax
    5194:	48 c1 e8 03          	shr    $0x3,%rax

0000000000005198 <_storeloop>:
    5198:	49 89 c2             	mov    %rax,%r10
    519b:	49 c1 e2 03          	shl    $0x3,%r10
    519f:	4c 03 15 8a e7 74 00 	add    0x74e78a(%rip),%r10        # 753930 <shmptr_cmp>
    51a6:	49 89 d9             	mov    %rbx,%r9
    51a9:	49 c1 e1 03          	shl    $0x3,%r9
    51ad:	4c 8d 05 3c 8a 5f 00 	lea    0x5f8a3c(%rip),%r8        # 5fdbf0 <funcinptr>
    51b4:	4d 01 c1             	add    %r8,%r9
    51b7:	4d 8b 01             	mov    (%r9),%r8
    51ba:	4d 89 02             	mov    %r8,(%r10)
    51bd:	48 83 fb 00          	cmp    $0x0,%rbx
    51c1:	75 07                	jne    51ca <_no_get_cmpid>
    51c3:	4c 89 05 5e e7 74 00 	mov    %r8,0x74e75e(%rip)        # 753928 <cmpid>

00000000000051ca <_no_get_cmpid>:
    51ca:	48 ff c0             	inc    %rax
    51cd:	48 ff c3             	inc    %rbx
    51d0:	48 83 fb 06          	cmp    $0x6,%rbx
    51d4:	75 c2                	jne    5198 <_storeloop>
    51d6:	48 8b 1d 5b e7 74 00 	mov    0x74e75b(%rip),%rbx        # 753938 <shmptr_gcnt>
    51dd:	48 89 03             	mov    %rax,(%rbx)
    51e0:	48 8b 05 41 e7 74 00 	mov    0x74e741(%rip),%rax        # 753928 <cmpid>
    51e7:	48 c1 e0 04          	shl    $0x4,%rax
    51eb:	48 89 c3             	mov    %rax,%rbx
    51ee:	48 83 c3 08          	add    $0x8,%rbx
    51f2:	48 81 fb c0 5c 15 00 	cmp    $0x155cc0,%rbx
    51f9:	0f 83 17 01 00 00    	jae    5316 <_cmpdictFull>
    51ff:	48 8d 1d 3a 8a 5f 00 	lea    0x5f8a3a(%rip),%rbx        # 5fdc40 <cmpid_dict>
    5206:	48 01 d8             	add    %rbx,%rax
    5209:	48 83 38 00          	cmpq   $0x0,(%rax)
    520d:	0f 84 db 00 00 00    	je     52ee <_insert_entry>
    5213:	49 c7 c0 00 00 00 00 	mov    $0x0,%r8

000000000000521a <_remove_repeated_cycle>:
    521a:	4d 89 c1             	mov    %r8,%r9
    521d:	4d 89 ca             	mov    %r9,%r10
    5220:	49 c1 e1 02          	shl    $0x2,%r9
    5224:	4d 01 d1             	add    %r10,%r9
    5227:	4d 01 d1             	add    %r10,%r9
    522a:	4c 8b 15 07 e7 74 00 	mov    0x74e707(%rip),%r10        # 753938 <shmptr_gcnt>
    5231:	4d 8b 12             	mov    (%r10),%r10
    5234:	4c 2b 10             	sub    (%rax),%r10
    5237:	4c 3b 10             	cmp    (%rax),%r10
    523a:	0f 87 9f 00 00 00    	ja     52df <_no_remove_cycle>
    5240:	4d 39 ca             	cmp    %r9,%r10
    5243:	76 67                	jbe    52ac <_remove_cycle>
    5245:	4d 89 c1             	mov    %r8,%r9
    5248:	49 83 c1 01          	add    $0x1,%r9
    524c:	4d 89 ca             	mov    %r9,%r10
    524f:	49 c1 e1 02          	shl    $0x2,%r9
    5253:	4d 01 d1             	add    %r10,%r9
    5256:	4d 01 d1             	add    %r10,%r9
    5259:	4c 8b 15 d8 e6 74 00 	mov    0x74e6d8(%rip),%r10        # 753938 <shmptr_gcnt>
    5260:	4d 8b 12             	mov    (%r10),%r10
    5263:	4d 29 ca             	sub    %r9,%r10
    5266:	49 c1 e2 03          	shl    $0x3,%r10
    526a:	4c 8b 0d bf e6 74 00 	mov    0x74e6bf(%rip),%r9        # 753930 <shmptr_cmp>
    5271:	4d 01 d1             	add    %r10,%r9
    5274:	49 8b 19             	mov    (%r9),%rbx
    5277:	4d 89 c1             	mov    %r8,%r9
    527a:	49 83 c1 01          	add    $0x1,%r9
    527e:	4d 89 ca             	mov    %r9,%r10
    5281:	49 c1 e1 02          	shl    $0x2,%r9
    5285:	4d 01 d1             	add    %r10,%r9
    5288:	4d 01 d1             	add    %r10,%r9
    528b:	4c 8b 10             	mov    (%rax),%r10
    528e:	4d 29 ca             	sub    %r9,%r10
    5291:	49 c1 e2 03          	shl    $0x3,%r10
    5295:	4c 8b 0d 94 e6 74 00 	mov    0x74e694(%rip),%r9        # 753930 <shmptr_cmp>
    529c:	4d 01 d1             	add    %r10,%r9
    529f:	49 3b 19             	cmp    (%r9),%rbx
    52a2:	75 3b                	jne    52df <_no_remove_cycle>
    52a4:	49 ff c0             	inc    %r8
    52a7:	e9 6e ff ff ff       	jmpq   521a <_remove_repeated_cycle>

00000000000052ac <_remove_cycle>:
    52ac:	48 89 15 65 e6 74 00 	mov    %rdx,0x74e665(%rip)        # 753918 <tmpquadone>
    52b3:	48 8b 10             	mov    (%rax),%rdx
    52b6:	48 8b 05 7b e6 74 00 	mov    0x74e67b(%rip),%rax        # 753938 <shmptr_gcnt>
    52bd:	48 89 10             	mov    %rdx,(%rax)
    52c0:	89 d0                	mov    %edx,%eax
    52c2:	48 c1 ea 20          	shr    $0x20,%rdx
    52c6:	49 c7 c0 06 00 00 00 	mov    $0x6,%r8
    52cd:	49 f7 f0             	div    %r8
    52d0:	89 05 52 89 5f 00    	mov    %eax,0x5f8952(%rip)        # 5fdc28 <edgeCnt>
    52d6:	48 8b 15 3b e6 74 00 	mov    0x74e63b(%rip),%rdx        # 753918 <tmpquadone>
    52dd:	eb 1c                	jmp    52fb <_skipstoredata>

00000000000052df <_no_remove_cycle>:
    52df:	48 8b 1d 52 e6 74 00 	mov    0x74e652(%rip),%rbx        # 753938 <shmptr_gcnt>
    52e6:	48 8b 1b             	mov    (%rbx),%rbx
    52e9:	48 89 18             	mov    %rbx,(%rax)
    52ec:	eb 0d                	jmp    52fb <_skipstoredata>

00000000000052ee <_insert_entry>:
    52ee:	48 8b 1d 43 e6 74 00 	mov    0x74e643(%rip),%rbx        # 753938 <shmptr_gcnt>
    52f5:	48 8b 1b             	mov    (%rbx),%rbx
    52f8:	48 89 18             	mov    %rbx,(%rax)

00000000000052fb <_skipstoredata>:
    52fb:	41 5a                	pop    %r10
    52fd:	41 59                	pop    %r9
    52ff:	41 58                	pop    %r8
    5301:	5b                   	pop    %rbx
    5302:	58                   	pop    %rax
    5303:	48 89 ec             	mov    %rbp,%rsp
    5306:	5d                   	pop    %rbp
    5307:	c2 08 00             	retq   $0x8

000000000000530a <_shmFull>:
    530a:	48 c7 c0 0f 00 00 00 	mov    $0xf,%rax
    5311:	e8 9a c5 ff ff       	callq  18b0 <_exit@plt>

0000000000005316 <_cmpdictFull>:
    5316:	48 c7 c0 0e 00 00 00 	mov    $0xe,%rax
    531d:	e8 8e c5 ff ff       	callq  18b0 <_exit@plt>

0000000000005322 <_shmUninitialize>:
    5322:	48 89 ec             	mov    %rbp,%rsp
    5325:	5d                   	pop    %rbp
    5326:	48 31 c0             	xor    %rax,%rax
    5329:	c2 08 00             	retq   $0x8
    532c:	0f 1f 40 00          	nopl   0x0(%rax)
    5330:	9f                   	lahf   
    5331:	0f 90 c0             	seto   %al
    5334:	0f 1f 40 00          	nopl   0x0(%rax)

0000000000005338 <__afl_setup_first>:
    5338:	48 8d a4 24 98 fe ff 	lea    -0x168(%rsp),%rsp
    533f:	ff 
    5340:	48 89 04 24          	mov    %rax,(%rsp)
    5344:	48 89 4c 24 08       	mov    %rcx,0x8(%rsp)
    5349:	48 89 7c 24 10       	mov    %rdi,0x10(%rsp)
    534e:	48 89 74 24 20       	mov    %rsi,0x20(%rsp)
    5353:	4c 89 44 24 28       	mov    %r8,0x28(%rsp)
    5358:	4c 89 4c 24 30       	mov    %r9,0x30(%rsp)
    535d:	4c 89 54 24 38       	mov    %r10,0x38(%rsp)
    5362:	4c 89 5c 24 40       	mov    %r11,0x40(%rsp)
    5367:	66 0f d6 44 24 60    	movq   %xmm0,0x60(%rsp)
    536d:	66 0f d6 4c 24 70    	movq   %xmm1,0x70(%rsp)
    5373:	66 0f d6 94 24 80 00 	movq   %xmm2,0x80(%rsp)
    537a:	00 00 
    537c:	66 0f d6 9c 24 90 00 	movq   %xmm3,0x90(%rsp)
    5383:	00 00 
    5385:	66 0f d6 a4 24 a0 00 	movq   %xmm4,0xa0(%rsp)
    538c:	00 00 
    538e:	66 0f d6 ac 24 b0 00 	movq   %xmm5,0xb0(%rsp)
    5395:	00 00 
    5397:	66 0f d6 b4 24 c0 00 	movq   %xmm6,0xc0(%rsp)
    539e:	00 00 
    53a0:	66 0f d6 bc 24 d0 00 	movq   %xmm7,0xd0(%rsp)
    53a7:	00 00 
    53a9:	66 44 0f d6 84 24 e0 	movq   %xmm8,0xe0(%rsp)
    53b0:	00 00 00 
    53b3:	66 44 0f d6 8c 24 f0 	movq   %xmm9,0xf0(%rsp)
    53ba:	00 00 00 
    53bd:	66 44 0f d6 94 24 00 	movq   %xmm10,0x100(%rsp)
    53c4:	01 00 00 
    53c7:	66 44 0f d6 9c 24 10 	movq   %xmm11,0x110(%rsp)
    53ce:	01 00 00 
    53d1:	66 44 0f d6 a4 24 20 	movq   %xmm12,0x120(%rsp)
    53d8:	01 00 00 
    53db:	66 44 0f d6 ac 24 30 	movq   %xmm13,0x130(%rsp)
    53e2:	01 00 00 
    53e5:	66 44 0f d6 b4 24 40 	movq   %xmm14,0x140(%rsp)
    53ec:	01 00 00 
    53ef:	66 44 0f d6 bc 24 50 	movq   %xmm15,0x150(%rsp)
    53f6:	01 00 00 
    53f9:	48 89 94 24 60 01 00 	mov    %rdx,0x160(%rsp)
    5400:	00 
    5401:	41 54                	push   %r12
    5403:	49 89 e4             	mov    %rsp,%r12
    5406:	48 83 ec 10          	sub    $0x10,%rsp
    540a:	48 83 e4 f0          	and    $0xfffffffffffffff0,%rsp
    540e:	48 c7 05 2f e5 74 00 	movq   $0x100000,0x74e52f(%rip)        # 753948 <shmSize>
    5415:	00 00 10 00 
    5419:	48 c7 05 c4 87 5f 00 	movq   $0x100000,0x5f87c4(%rip)        # 5fdbe8 <shmSize2>
    5420:	00 00 10 00 
    5424:	48 8d 3d 4b 03 00 00 	lea    0x34b(%rip),%rdi        # 5776 <.SHM_ENV_GCNT>
    542b:	e8 30 c4 ff ff       	callq  1860 <getenv@plt>
    5430:	48 85 c0             	test   %rax,%rax
    5433:	0f 84 6a 01 00 00    	je     55a3 <__afl_setup_abort>
    5439:	48 89 c7             	mov    %rax,%rdi
    543c:	e8 af c7 ff ff       	callq  1bf0 <atoi@plt>
    5441:	48 31 d2             	xor    %rdx,%rdx
    5444:	48 31 f6             	xor    %rsi,%rsi
    5447:	48 89 c7             	mov    %rax,%rdi
    544a:	e8 81 c7 ff ff       	callq  1bd0 <shmat@plt>
    544f:	48 83 f8 ff          	cmp    $0xffffffffffffffff,%rax
    5453:	0f 84 4a 01 00 00    	je     55a3 <__afl_setup_abort>
    5459:	48 89 05 d8 e4 74 00 	mov    %rax,0x74e4d8(%rip)        # 753938 <shmptr_gcnt>
    5460:	48 8d 3d f6 02 00 00 	lea    0x2f6(%rip),%rdi        # 575d <.SHM_ENV_CMP>
    5467:	e8 f4 c3 ff ff       	callq  1860 <getenv@plt>
    546c:	48 85 c0             	test   %rax,%rax
    546f:	0f 84 2e 01 00 00    	je     55a3 <__afl_setup_abort>
    5475:	48 89 c7             	mov    %rax,%rdi
    5478:	e8 73 c7 ff ff       	callq  1bf0 <atoi@plt>
    547d:	48 31 d2             	xor    %rdx,%rdx
    5480:	48 31 f6             	xor    %rsi,%rsi
    5483:	48 89 c7             	mov    %rax,%rdi
    5486:	e8 45 c7 ff ff       	callq  1bd0 <shmat@plt>
    548b:	48 83 f8 ff          	cmp    $0xffffffffffffffff,%rax
    548f:	0f 84 0e 01 00 00    	je     55a3 <__afl_setup_abort>
    5495:	48 89 05 94 e4 74 00 	mov    %rax,0x74e494(%rip)        # 753930 <shmptr_cmp>
    549c:	48 8d 3d c6 02 00 00 	lea    0x2c6(%rip),%rdi        # 5769 <.SHM_ENV_EDGE>
    54a3:	e8 b8 c3 ff ff       	callq  1860 <getenv@plt>
    54a8:	48 85 c0             	test   %rax,%rax
    54ab:	0f 84 f2 00 00 00    	je     55a3 <__afl_setup_abort>
    54b1:	48 89 c7             	mov    %rax,%rdi
    54b4:	e8 37 c7 ff ff       	callq  1bf0 <atoi@plt>
    54b9:	48 31 d2             	xor    %rdx,%rdx
    54bc:	48 31 f6             	xor    %rsi,%rsi
    54bf:	48 89 c7             	mov    %rax,%rdi
    54c2:	e8 09 c7 ff ff       	callq  1bd0 <shmat@plt>
    54c7:	48 83 f8 ff          	cmp    $0xffffffffffffffff,%rax
    54cb:	0f 84 d2 00 00 00    	je     55a3 <__afl_setup_abort>
    54d1:	48 89 05 30 e4 74 00 	mov    %rax,0x74e430(%rip)        # 753908 <shmptr_edge>

00000000000054d8 <__afl_forkserver>:
    54d8:	48 c7 c2 04 00 00 00 	mov    $0x4,%rdx
    54df:	48 8d 35 46 85 5f 00 	lea    0x5f8546(%rip),%rsi        # 5fda2c <__afl_temp>
    54e6:	48 c7 c7 c5 00 00 00 	mov    $0xc5,%rdi
    54ed:	e8 de c3 ff ff       	callq  18d0 <write@plt>
    54f2:	48 83 f8 04          	cmp    $0x4,%rax
    54f6:	0f 85 78 01 00 00    	jne    5674 <__afl_fork_resume>

00000000000054fc <__afl_fork_wait_loop>:
    54fc:	48 c7 c2 04 00 00 00 	mov    $0x4,%rdx
    5503:	48 8d 35 22 85 5f 00 	lea    0x5f8522(%rip),%rsi        # 5fda2c <__afl_temp>
    550a:	48 c7 c7 c4 00 00 00 	mov    $0xc4,%rdi
    5511:	e8 2a c5 ff ff       	callq  1a40 <read@plt>
    5516:	48 83 f8 04          	cmp    $0x4,%rax
    551a:	75 70                	jne    558c <__afl_die>
    551c:	e8 2f c7 ff ff       	callq  1c50 <fork@plt>
    5521:	48 83 f8 00          	cmp    $0x0,%rax
    5525:	7c 65                	jl     558c <__afl_die>
    5527:	0f 84 47 01 00 00    	je     5674 <__afl_fork_resume>
    552d:	89 05 f5 84 5f 00    	mov    %eax,0x5f84f5(%rip)        # 5fda28 <__afl_fork_pid>
    5533:	48 c7 c2 04 00 00 00 	mov    $0x4,%rdx
    553a:	48 8d 35 e7 84 5f 00 	lea    0x5f84e7(%rip),%rsi        # 5fda28 <__afl_fork_pid>
    5541:	48 c7 c7 c5 00 00 00 	mov    $0xc5,%rdi
    5548:	e8 83 c3 ff ff       	callq  18d0 <write@plt>
    554d:	48 c7 c2 00 00 00 00 	mov    $0x0,%rdx
    5554:	48 8d 35 d1 84 5f 00 	lea    0x5f84d1(%rip),%rsi        # 5fda2c <__afl_temp>
    555b:	48 8b 3d c6 84 5f 00 	mov    0x5f84c6(%rip),%rdi        # 5fda28 <__afl_fork_pid>
    5562:	e8 19 c6 ff ff       	callq  1b80 <waitpid@plt>
    5567:	48 83 f8 00          	cmp    $0x0,%rax
    556b:	7e 1f                	jle    558c <__afl_die>
    556d:	48 c7 c2 04 00 00 00 	mov    $0x4,%rdx
    5574:	48 8d 35 b1 84 5f 00 	lea    0x5f84b1(%rip),%rsi        # 5fda2c <__afl_temp>
    557b:	48 c7 c7 c5 00 00 00 	mov    $0xc5,%rdi
    5582:	e8 49 c3 ff ff       	callq  18d0 <write@plt>
    5587:	e9 70 ff ff ff       	jmpq   54fc <__afl_fork_wait_loop>

000000000000558c <__afl_die>:
    558c:	48 8d 3d 27 02 00 00 	lea    0x227(%rip),%rdi        # 57ba <.serverDied>
    5593:	48 31 c0             	xor    %rax,%rax
    5596:	e8 f5 c3 ff ff       	callq  1990 <printf@plt>
    559b:	48 31 c0             	xor    %rax,%rax
    559e:	e8 0d c3 ff ff       	callq  18b0 <_exit@plt>

00000000000055a3 <__afl_setup_abort>:
    55a3:	4c 89 e4             	mov    %r12,%rsp
    55a6:	41 5c                	pop    %r12
    55a8:	48 8b 04 24          	mov    (%rsp),%rax
    55ac:	48 8b 4c 24 08       	mov    0x8(%rsp),%rcx
    55b1:	48 8b 7c 24 10       	mov    0x10(%rsp),%rdi
    55b6:	48 8b 74 24 20       	mov    0x20(%rsp),%rsi
    55bb:	4c 8b 44 24 28       	mov    0x28(%rsp),%r8
    55c0:	4c 8b 4c 24 30       	mov    0x30(%rsp),%r9
    55c5:	4c 8b 54 24 38       	mov    0x38(%rsp),%r10
    55ca:	4c 8b 5c 24 40       	mov    0x40(%rsp),%r11
    55cf:	f3 0f 7e 44 24 60    	movq   0x60(%rsp),%xmm0
    55d5:	f3 0f 7e 4c 24 70    	movq   0x70(%rsp),%xmm1
    55db:	f3 0f 7e 94 24 80 00 	movq   0x80(%rsp),%xmm2
    55e2:	00 00 
    55e4:	f3 0f 7e 9c 24 90 00 	movq   0x90(%rsp),%xmm3
    55eb:	00 00 
    55ed:	f3 0f 7e a4 24 a0 00 	movq   0xa0(%rsp),%xmm4
    55f4:	00 00 
    55f6:	f3 0f 7e ac 24 b0 00 	movq   0xb0(%rsp),%xmm5
    55fd:	00 00 
    55ff:	f3 0f 7e b4 24 c0 00 	movq   0xc0(%rsp),%xmm6
    5606:	00 00 
    5608:	f3 0f 7e bc 24 d0 00 	movq   0xd0(%rsp),%xmm7
    560f:	00 00 
    5611:	f3 44 0f 7e 84 24 e0 	movq   0xe0(%rsp),%xmm8
    5618:	00 00 00 
    561b:	f3 44 0f 7e 8c 24 f0 	movq   0xf0(%rsp),%xmm9
    5622:	00 00 00 
    5625:	f3 44 0f 7e 94 24 00 	movq   0x100(%rsp),%xmm10
    562c:	01 00 00 
    562f:	f3 44 0f 7e 9c 24 10 	movq   0x110(%rsp),%xmm11
    5636:	01 00 00 
    5639:	f3 44 0f 7e a4 24 20 	movq   0x120(%rsp),%xmm12
    5640:	01 00 00 
    5643:	f3 44 0f 7e ac 24 30 	movq   0x130(%rsp),%xmm13
    564a:	01 00 00 
    564d:	f3 44 0f 7e b4 24 40 	movq   0x140(%rsp),%xmm14
    5654:	01 00 00 
    5657:	f3 44 0f 7e bc 24 50 	movq   0x150(%rsp),%xmm15
    565e:	01 00 00 
    5661:	48 8b 94 24 60 01 00 	mov    0x160(%rsp),%rdx
    5668:	00 
    5669:	48 8d a4 24 68 01 00 	lea    0x168(%rsp),%rsp
    5670:	00 
    5671:	b0 7f                	mov    $0x7f,%al
    5673:	c3                   	retq   

0000000000005674 <__afl_fork_resume>:
    5674:	48 c7 c7 c4 00 00 00 	mov    $0xc4,%rdi
    567b:	e8 90 c3 ff ff       	callq  1a10 <close@plt>
    5680:	48 c7 c7 c5 00 00 00 	mov    $0xc5,%rdi
    5687:	e8 84 c3 ff ff       	callq  1a10 <close@plt>
    568c:	4c 89 e4             	mov    %r12,%rsp
    568f:	41 5c                	pop    %r12
    5691:	48 8b 04 24          	mov    (%rsp),%rax
    5695:	48 8b 4c 24 08       	mov    0x8(%rsp),%rcx
    569a:	48 8b 7c 24 10       	mov    0x10(%rsp),%rdi
    569f:	48 8b 74 24 20       	mov    0x20(%rsp),%rsi
    56a4:	4c 8b 44 24 28       	mov    0x28(%rsp),%r8
    56a9:	4c 8b 4c 24 30       	mov    0x30(%rsp),%r9
    56ae:	4c 8b 54 24 38       	mov    0x38(%rsp),%r10
    56b3:	4c 8b 5c 24 40       	mov    0x40(%rsp),%r11
    56b8:	f3 0f 7e 44 24 60    	movq   0x60(%rsp),%xmm0
    56be:	f3 0f 7e 4c 24 70    	movq   0x70(%rsp),%xmm1
    56c4:	f3 0f 7e 94 24 80 00 	movq   0x80(%rsp),%xmm2
    56cb:	00 00 
    56cd:	f3 0f 7e 9c 24 90 00 	movq   0x90(%rsp),%xmm3
    56d4:	00 00 
    56d6:	f3 0f 7e a4 24 a0 00 	movq   0xa0(%rsp),%xmm4
    56dd:	00 00 
    56df:	f3 0f 7e ac 24 b0 00 	movq   0xb0(%rsp),%xmm5
    56e6:	00 00 
    56e8:	f3 0f 7e b4 24 c0 00 	movq   0xc0(%rsp),%xmm6
    56ef:	00 00 
    56f1:	f3 0f 7e bc 24 d0 00 	movq   0xd0(%rsp),%xmm7
    56f8:	00 00 
    56fa:	f3 44 0f 7e 84 24 e0 	movq   0xe0(%rsp),%xmm8
    5701:	00 00 00 
    5704:	f3 44 0f 7e 8c 24 f0 	movq   0xf0(%rsp),%xmm9
    570b:	00 00 00 
    570e:	f3 44 0f 7e 94 24 00 	movq   0x100(%rsp),%xmm10
    5715:	01 00 00 
    5718:	f3 44 0f 7e 9c 24 10 	movq   0x110(%rsp),%xmm11
    571f:	01 00 00 
    5722:	f3 44 0f 7e a4 24 20 	movq   0x120(%rsp),%xmm12
    5729:	01 00 00 
    572c:	f3 44 0f 7e ac 24 30 	movq   0x130(%rsp),%xmm13
    5733:	01 00 00 
    5736:	f3 44 0f 7e b4 24 40 	movq   0x140(%rsp),%xmm14
    573d:	01 00 00 
    5740:	f3 44 0f 7e bc 24 50 	movq   0x150(%rsp),%xmm15
    5747:	01 00 00 
    574a:	48 8b 94 24 60 01 00 	mov    0x160(%rsp),%rdx
    5751:	00 
    5752:	48 8d a4 24 68 01 00 	lea    0x168(%rsp),%rsp
    5759:	00 
    575a:	b0 00                	mov    $0x0,%al
    575c:	c3                   	retq   

000000000000575d <.SHM_ENV_CMP>:
    575d:	53                   	push   %rbx
    575e:	48                   	rex.W
    575f:	4d 5f                	rex.WRB pop %r15
    5761:	45                   	rex.RB
    5762:	4e 56                	rex.WRX push %rsi
    5764:	5f                   	pop    %rdi
    5765:	43                   	rex.XB
    5766:	4d 50                	rex.WRB push %r8
	...

0000000000005769 <.SHM_ENV_EDGE>:
    5769:	53                   	push   %rbx
    576a:	48                   	rex.W
    576b:	4d 5f                	rex.WRB pop %r15
    576d:	45                   	rex.RB
    576e:	4e 56                	rex.WRX push %rsi
    5770:	5f                   	pop    %rdi
    5771:	45                   	rex.RB
    5772:	44                   	rex.R
    5773:	47                   	rex.RXB
    5774:	45                   	rex.RB
	...

0000000000005776 <.SHM_ENV_GCNT>:
    5776:	53                   	push   %rbx
    5777:	48                   	rex.W
    5778:	4d 5f                	rex.WRB pop %r15
    577a:	45                   	rex.RB
    577b:	4e 56                	rex.WRX push %rsi
    577d:	5f                   	pop    %rdi
    577e:	47                   	rex.RXB
    577f:	43                   	rex.XB
    5780:	4e 54                	rex.WRX push %rsp
	...

0000000000005783 <.serverSetupError>:
    5783:	20 53 65             	and    %dl,0x65(%rbx)
    5786:	72 76                	jb     57fe <_storeEdge+0x1e>
    5788:	65 72 20             	gs jb  57ab <.serverSetupError+0x28>
    578b:	53                   	push   %rbx
    578c:	65 74 75             	gs je  5804 <_storeEdge+0x24>
    578f:	70 20                	jo     57b1 <.serverSetupError+0x2e>
    5791:	45 72 72             	rex.RB jb 5806 <_storeEdge+0x26>
    5794:	6f                   	outsl  %ds:(%rsi),(%dx)
    5795:	72 2c                	jb     57c3 <.serverDied+0x9>
    5797:	20 63 6f             	and    %ah,0x6f(%rbx)
    579a:	6e                   	outsb  %ds:(%rsi),(%dx)
    579b:	74 69                	je     5806 <_storeEdge+0x26>
    579d:	6e                   	outsb  %ds:(%rsi),(%dx)
    579e:	75 65                	jne    5805 <_storeEdge+0x25>
    57a0:	20 72 75             	and    %dh,0x75(%rdx)
    57a3:	6e                   	outsb  %ds:(%rsi),(%dx)
    57a4:	6e                   	outsb  %ds:(%rsi),(%dx)
    57a5:	69 67 20 77 69 74 68 	imul   $0x68746977,0x20(%rdi),%esp
    57ac:	6f                   	outsl  %ds:(%rsi),(%dx)
    57ad:	75 74                	jne    5823 <_storeEdge+0x43>
    57af:	20 73 65             	and    %dh,0x65(%rbx)
    57b2:	72 76                	jb     582a <_caledgehash>
    57b4:	65 72 20             	gs jb  57d7 <.debug+0xa>
    57b7:	0a 20                	or     (%rax),%ah
	...

00000000000057ba <.serverDied>:
    57ba:	20 53 65             	and    %dl,0x65(%rbx)
    57bd:	72 76                	jb     5835 <_caledgehash+0xb>
    57bf:	65 72 20             	gs jb  57e2 <_storeEdge+0x2>
    57c2:	69 73 20 64 65 61 64 	imul   $0x64616564,0x20(%rbx),%esi
    57c9:	20 0a                	and    %cl,(%rdx)
    57cb:	20 00                	and    %al,(%rax)

00000000000057cd <.debug>:
    57cd:	64 65 62             	fs gs (bad) 
    57d0:	75 67                	jne    5839 <_caledgehash+0xf>
    57d2:	20 6d 65             	and    %ch,0x65(%rbp)
    57d5:	73 73                	jae    584a <_caledgehash+0x20>
    57d7:	61                   	(bad)  
    57d8:	67 65 3a 20          	cmp    %gs:(%eax),%ah
    57dc:	0a 20                	or     (%rax),%ah
    57de:	00                   	.byte 0x0
    57df:	90                   	nop

00000000000057e0 <_storeEdge>:
    57e0:	50                   	push   %rax
    57e1:	53                   	push   %rbx
    57e2:	51                   	push   %rcx
    57e3:	52                   	push   %rdx
    57e4:	48 83 3d 64 e1 74 00 	cmpq   $0x1,0x74e164(%rip)        # 753950 <cmpPassed>
    57eb:	01 
    57ec:	75 3c                	jne    582a <_caledgehash>
    57ee:	48 c7 05 57 e1 74 00 	movq   $0x0,0x74e157(%rip)        # 753950 <cmpPassed>
    57f5:	00 00 00 00 
    57f9:	48 8b 05 28 84 5f 00 	mov    0x5f8428(%rip),%rax        # 5fdc28 <edgeCnt>
    5800:	48 c1 e0 03          	shl    $0x3,%rax
    5804:	48 3b 05 dd 83 5f 00 	cmp    0x5f83dd(%rip),%rax        # 5fdbe8 <shmSize2>
    580b:	77 55                	ja     5862 <_shm2Full>
    580d:	48 8b 1d fc e0 74 00 	mov    0x74e0fc(%rip),%rbx        # 753910 <edgehash>
    5814:	48 8b 15 ed e0 74 00 	mov    0x74e0ed(%rip),%rdx        # 753908 <shmptr_edge>
    581b:	48 8d 0c 10          	lea    (%rax,%rdx,1),%rcx
    581f:	48 89 19             	mov    %rbx,(%rcx)
    5822:	48 83 05 fe 83 5f 00 	addq   $0x1,0x5f83fe(%rip)        # 5fdc28 <edgeCnt>
    5829:	01 

000000000000582a <_caledgehash>:
    582a:	48 8b 15 df e0 74 00 	mov    0x74e0df(%rip),%rdx        # 753910 <edgehash>
    5831:	48 89 d0             	mov    %rdx,%rax
    5834:	48 c1 e0 05          	shl    $0x5,%rax
    5838:	48 01 c2             	add    %rax,%rdx
    583b:	48 8b 05 fe e0 74 00 	mov    0x74e0fe(%rip),%rax        # 753940 <edgeId>
    5842:	48 01 d0             	add    %rdx,%rax
    5845:	48 89 05 c4 e0 74 00 	mov    %rax,0x74e0c4(%rip)        # 753910 <edgehash>
    584c:	48 b8 ff ff ff ff 00 	movabs $0xffffffff,%rax
    5853:	00 00 00 
    5856:	48 21 05 b3 e0 74 00 	and    %rax,0x74e0b3(%rip)        # 753910 <edgehash>
    585d:	5a                   	pop    %rdx
    585e:	59                   	pop    %rcx
    585f:	5b                   	pop    %rbx
    5860:	58                   	pop    %rax
    5861:	c3                   	retq   

0000000000005862 <_shm2Full>:
    5862:	48 c7 c0 0f 00 00 00 	mov    $0xf,%rax
    5869:	5a                   	pop    %rdx
    586a:	59                   	pop    %rcx
    586b:	5b                   	pop    %rbx
    586c:	58                   	pop    %rax
    586d:	e8 3e c0 ff ff       	callq  18b0 <_exit@plt>
    5872:	66 0f 1f 44 00 00    	nopw   0x0(%rax,%rax,1)

0000000000005878 <_storeDataFn>:
    5878:	55                   	push   %rbp
    5879:	48 89 e5             	mov    %rsp,%rbp
    587c:	50                   	push   %rax
    587d:	53                   	push   %rbx
    587e:	41 50                	push   %r8
    5880:	41 51                	push   %r9
    5882:	41 52                	push   %r10
    5884:	48 8b 05 ad e0 74 00 	mov    0x74e0ad(%rip),%rax        # 753938 <shmptr_gcnt>
    588b:	48 8b 00             	mov    (%rax),%rax
    588e:	48 c1 e0 03          	shl    $0x3,%rax
    5892:	48 83 c0 30          	add    $0x30,%rax
    5896:	48 3b 05 ab e0 74 00 	cmp    0x74e0ab(%rip),%rax        # 753948 <shmSize>
    589d:	0f 83 8f 01 00 00    	jae    5a32 <_shmFull>
    58a3:	48 83 3d 85 e0 74 00 	cmpq   $0x0,0x74e085(%rip)        # 753930 <shmptr_cmp>
    58aa:	00 
    58ab:	0f 84 99 01 00 00    	je     5a4a <_shmUninitialize>
    58b1:	48 c7 c3 00 00 00 00 	mov    $0x0,%rbx
    58b8:	48 83 e8 30          	sub    $0x30,%rax
    58bc:	48 c1 e8 03          	shr    $0x3,%rax

00000000000058c0 <_storeloop>:
    58c0:	49 89 c2             	mov    %rax,%r10
    58c3:	49 c1 e2 03          	shl    $0x3,%r10
    58c7:	4c 03 15 62 e0 74 00 	add    0x74e062(%rip),%r10        # 753930 <shmptr_cmp>
    58ce:	49 89 d9             	mov    %rbx,%r9
    58d1:	49 c1 e1 03          	shl    $0x3,%r9
    58d5:	4c 8d 05 14 83 5f 00 	lea    0x5f8314(%rip),%r8        # 5fdbf0 <funcinptr>
    58dc:	4d 01 c1             	add    %r8,%r9
    58df:	4d 8b 01             	mov    (%r9),%r8
    58e2:	4d 89 02             	mov    %r8,(%r10)
    58e5:	48 83 fb 00          	cmp    $0x0,%rbx
    58e9:	75 07                	jne    58f2 <_no_get_cmpid>
    58eb:	4c 89 05 36 e0 74 00 	mov    %r8,0x74e036(%rip)        # 753928 <cmpid>

00000000000058f2 <_no_get_cmpid>:
    58f2:	48 ff c0             	inc    %rax
    58f5:	48 ff c3             	inc    %rbx
    58f8:	48 83 fb 06          	cmp    $0x6,%rbx
    58fc:	75 c2                	jne    58c0 <_storeloop>
    58fe:	48 8b 1d 33 e0 74 00 	mov    0x74e033(%rip),%rbx        # 753938 <shmptr_gcnt>
    5905:	48 89 03             	mov    %rax,(%rbx)
    5908:	48 8b 05 19 e0 74 00 	mov    0x74e019(%rip),%rax        # 753928 <cmpid>
    590f:	48 c1 e0 04          	shl    $0x4,%rax
    5913:	48 89 c3             	mov    %rax,%rbx
    5916:	48 83 c3 08          	add    $0x8,%rbx
    591a:	48 81 fb c0 5c 15 00 	cmp    $0x155cc0,%rbx
    5921:	0f 83 17 01 00 00    	jae    5a3e <_cmpdictFull>
    5927:	48 8d 1d 12 83 5f 00 	lea    0x5f8312(%rip),%rbx        # 5fdc40 <cmpid_dict>
    592e:	48 01 d8             	add    %rbx,%rax
    5931:	48 83 38 00          	cmpq   $0x0,(%rax)
    5935:	0f 84 db 00 00 00    	je     5a16 <_insert_entry>
    593b:	49 c7 c0 00 00 00 00 	mov    $0x0,%r8

0000000000005942 <_remove_repeated_cycle>:
    5942:	4d 89 c1             	mov    %r8,%r9
    5945:	4d 89 ca             	mov    %r9,%r10
    5948:	49 c1 e1 02          	shl    $0x2,%r9
    594c:	4d 01 d1             	add    %r10,%r9
    594f:	4d 01 d1             	add    %r10,%r9
    5952:	4c 8b 15 df df 74 00 	mov    0x74dfdf(%rip),%r10        # 753938 <shmptr_gcnt>
    5959:	4d 8b 12             	mov    (%r10),%r10
    595c:	4c 2b 10             	sub    (%rax),%r10
    595f:	4c 3b 10             	cmp    (%rax),%r10
    5962:	0f 87 9f 00 00 00    	ja     5a07 <_no_remove_cycle>
    5968:	4d 39 ca             	cmp    %r9,%r10
    596b:	76 67                	jbe    59d4 <_remove_cycle>
    596d:	4d 89 c1             	mov    %r8,%r9
    5970:	49 83 c1 01          	add    $0x1,%r9
    5974:	4d 89 ca             	mov    %r9,%r10
    5977:	49 c1 e1 02          	shl    $0x2,%r9
    597b:	4d 01 d1             	add    %r10,%r9
    597e:	4d 01 d1             	add    %r10,%r9
    5981:	4c 8b 15 b0 df 74 00 	mov    0x74dfb0(%rip),%r10        # 753938 <shmptr_gcnt>
    5988:	4d 8b 12             	mov    (%r10),%r10
    598b:	4d 29 ca             	sub    %r9,%r10
    598e:	49 c1 e2 03          	shl    $0x3,%r10
    5992:	4c 8b 0d 97 df 74 00 	mov    0x74df97(%rip),%r9        # 753930 <shmptr_cmp>
    5999:	4d 01 d1             	add    %r10,%r9
    599c:	49 8b 19             	mov    (%r9),%rbx
    599f:	4d 89 c1             	mov    %r8,%r9
    59a2:	49 83 c1 01          	add    $0x1,%r9
    59a6:	4d 89 ca             	mov    %r9,%r10
    59a9:	49 c1 e1 02          	shl    $0x2,%r9
    59ad:	4d 01 d1             	add    %r10,%r9
    59b0:	4d 01 d1             	add    %r10,%r9
    59b3:	4c 8b 10             	mov    (%rax),%r10
    59b6:	4d 29 ca             	sub    %r9,%r10
    59b9:	49 c1 e2 03          	shl    $0x3,%r10
    59bd:	4c 8b 0d 6c df 74 00 	mov    0x74df6c(%rip),%r9        # 753930 <shmptr_cmp>
    59c4:	4d 01 d1             	add    %r10,%r9
    59c7:	49 3b 19             	cmp    (%r9),%rbx
    59ca:	75 3b                	jne    5a07 <_no_remove_cycle>
    59cc:	49 ff c0             	inc    %r8
    59cf:	e9 6e ff ff ff       	jmpq   5942 <_remove_repeated_cycle>

00000000000059d4 <_remove_cycle>:
    59d4:	48 89 15 3d df 74 00 	mov    %rdx,0x74df3d(%rip)        # 753918 <tmpquadone>
    59db:	48 8b 10             	mov    (%rax),%rdx
    59de:	48 8b 05 53 df 74 00 	mov    0x74df53(%rip),%rax        # 753938 <shmptr_gcnt>
    59e5:	48 89 10             	mov    %rdx,(%rax)
    59e8:	89 d0                	mov    %edx,%eax
    59ea:	48 c1 ea 20          	shr    $0x20,%rdx
    59ee:	49 c7 c0 06 00 00 00 	mov    $0x6,%r8
    59f5:	49 f7 f0             	div    %r8
    59f8:	89 05 2a 82 5f 00    	mov    %eax,0x5f822a(%rip)        # 5fdc28 <edgeCnt>
    59fe:	48 8b 15 13 df 74 00 	mov    0x74df13(%rip),%rdx        # 753918 <tmpquadone>
    5a05:	eb 1c                	jmp    5a23 <_skipstoredata>

0000000000005a07 <_no_remove_cycle>:
    5a07:	48 8b 1d 2a df 74 00 	mov    0x74df2a(%rip),%rbx        # 753938 <shmptr_gcnt>
    5a0e:	48 8b 1b             	mov    (%rbx),%rbx
    5a11:	48 89 18             	mov    %rbx,(%rax)
    5a14:	eb 0d                	jmp    5a23 <_skipstoredata>

0000000000005a16 <_insert_entry>:
    5a16:	48 8b 1d 1b df 74 00 	mov    0x74df1b(%rip),%rbx        # 753938 <shmptr_gcnt>
    5a1d:	48 8b 1b             	mov    (%rbx),%rbx
    5a20:	48 89 18             	mov    %rbx,(%rax)

0000000000005a23 <_skipstoredata>:
    5a23:	41 5a                	pop    %r10
    5a25:	41 59                	pop    %r9
    5a27:	41 58                	pop    %r8
    5a29:	5b                   	pop    %rbx
    5a2a:	58                   	pop    %rax
    5a2b:	48 89 ec             	mov    %rbp,%rsp
    5a2e:	5d                   	pop    %rbp
    5a2f:	c2 08 00             	retq   $0x8

0000000000005a32 <_shmFull>:
    5a32:	48 c7 c0 0f 00 00 00 	mov    $0xf,%rax
    5a39:	e8 72 be ff ff       	callq  18b0 <_exit@plt>

0000000000005a3e <_cmpdictFull>:
    5a3e:	48 c7 c0 0e 00 00 00 	mov    $0xe,%rax
    5a45:	e8 66 be ff ff       	callq  18b0 <_exit@plt>

0000000000005a4a <_shmUninitialize>:
    5a4a:	48 89 ec             	mov    %rbp,%rsp
    5a4d:	5d                   	pop    %rbp
    5a4e:	48 31 c0             	xor    %rax,%rax
    5a51:	c2 08 00             	retq   $0x8
    5a54:	0f 1f 40 00          	nopl   0x0(%rax)
    5a58:	9f                   	lahf   
    5a59:	0f 90 c0             	seto   %al
    5a5c:	0f 1f 40 00          	nopl   0x0(%rax)

0000000000005a60 <__afl_setup_first>:
    5a60:	48 8d a4 24 98 fe ff 	lea    -0x168(%rsp),%rsp
    5a67:	ff 
    5a68:	48 89 04 24          	mov    %rax,(%rsp)
    5a6c:	48 89 4c 24 08       	mov    %rcx,0x8(%rsp)
    5a71:	48 89 7c 24 10       	mov    %rdi,0x10(%rsp)
    5a76:	48 89 74 24 20       	mov    %rsi,0x20(%rsp)
    5a7b:	4c 89 44 24 28       	mov    %r8,0x28(%rsp)
    5a80:	4c 89 4c 24 30       	mov    %r9,0x30(%rsp)
    5a85:	4c 89 54 24 38       	mov    %r10,0x38(%rsp)
    5a8a:	4c 89 5c 24 40       	mov    %r11,0x40(%rsp)
    5a8f:	66 0f d6 44 24 60    	movq   %xmm0,0x60(%rsp)
    5a95:	66 0f d6 4c 24 70    	movq   %xmm1,0x70(%rsp)
    5a9b:	66 0f d6 94 24 80 00 	movq   %xmm2,0x80(%rsp)
    5aa2:	00 00 
    5aa4:	66 0f d6 9c 24 90 00 	movq   %xmm3,0x90(%rsp)
    5aab:	00 00 
    5aad:	66 0f d6 a4 24 a0 00 	movq   %xmm4,0xa0(%rsp)
    5ab4:	00 00 
    5ab6:	66 0f d6 ac 24 b0 00 	movq   %xmm5,0xb0(%rsp)
    5abd:	00 00 
    5abf:	66 0f d6 b4 24 c0 00 	movq   %xmm6,0xc0(%rsp)
    5ac6:	00 00 
    5ac8:	66 0f d6 bc 24 d0 00 	movq   %xmm7,0xd0(%rsp)
    5acf:	00 00 
    5ad1:	66 44 0f d6 84 24 e0 	movq   %xmm8,0xe0(%rsp)
    5ad8:	00 00 00 
    5adb:	66 44 0f d6 8c 24 f0 	movq   %xmm9,0xf0(%rsp)
    5ae2:	00 00 00 
    5ae5:	66 44 0f d6 94 24 00 	movq   %xmm10,0x100(%rsp)
    5aec:	01 00 00 
    5aef:	66 44 0f d6 9c 24 10 	movq   %xmm11,0x110(%rsp)
    5af6:	01 00 00 
    5af9:	66 44 0f d6 a4 24 20 	movq   %xmm12,0x120(%rsp)
    5b00:	01 00 00 
    5b03:	66 44 0f d6 ac 24 30 	movq   %xmm13,0x130(%rsp)
    5b0a:	01 00 00 
    5b0d:	66 44 0f d6 b4 24 40 	movq   %xmm14,0x140(%rsp)
    5b14:	01 00 00 
    5b17:	66 44 0f d6 bc 24 50 	movq   %xmm15,0x150(%rsp)
    5b1e:	01 00 00 
    5b21:	48 89 94 24 60 01 00 	mov    %rdx,0x160(%rsp)
    5b28:	00 
    5b29:	41 54                	push   %r12
    5b2b:	49 89 e4             	mov    %rsp,%r12
    5b2e:	48 83 ec 10          	sub    $0x10,%rsp
    5b32:	48 83 e4 f0          	and    $0xfffffffffffffff0,%rsp
    5b36:	48 c7 05 07 de 74 00 	movq   $0x100000,0x74de07(%rip)        # 753948 <shmSize>
    5b3d:	00 00 10 00 
    5b41:	48 c7 05 9c 80 5f 00 	movq   $0x100000,0x5f809c(%rip)        # 5fdbe8 <shmSize2>
    5b48:	00 00 10 00 
    5b4c:	48 8d 3d 4b 03 00 00 	lea    0x34b(%rip),%rdi        # 5e9e <.SHM_ENV_GCNT>
    5b53:	e8 08 bd ff ff       	callq  1860 <getenv@plt>
    5b58:	48 85 c0             	test   %rax,%rax
    5b5b:	0f 84 6a 01 00 00    	je     5ccb <__afl_setup_abort>
    5b61:	48 89 c7             	mov    %rax,%rdi
    5b64:	e8 87 c0 ff ff       	callq  1bf0 <atoi@plt>
    5b69:	48 31 d2             	xor    %rdx,%rdx
    5b6c:	48 31 f6             	xor    %rsi,%rsi
    5b6f:	48 89 c7             	mov    %rax,%rdi
    5b72:	e8 59 c0 ff ff       	callq  1bd0 <shmat@plt>
    5b77:	48 83 f8 ff          	cmp    $0xffffffffffffffff,%rax
    5b7b:	0f 84 4a 01 00 00    	je     5ccb <__afl_setup_abort>
    5b81:	48 89 05 b0 dd 74 00 	mov    %rax,0x74ddb0(%rip)        # 753938 <shmptr_gcnt>
    5b88:	48 8d 3d f6 02 00 00 	lea    0x2f6(%rip),%rdi        # 5e85 <.SHM_ENV_CMP>
    5b8f:	e8 cc bc ff ff       	callq  1860 <getenv@plt>
    5b94:	48 85 c0             	test   %rax,%rax
    5b97:	0f 84 2e 01 00 00    	je     5ccb <__afl_setup_abort>
    5b9d:	48 89 c7             	mov    %rax,%rdi
    5ba0:	e8 4b c0 ff ff       	callq  1bf0 <atoi@plt>
    5ba5:	48 31 d2             	xor    %rdx,%rdx
    5ba8:	48 31 f6             	xor    %rsi,%rsi
    5bab:	48 89 c7             	mov    %rax,%rdi
    5bae:	e8 1d c0 ff ff       	callq  1bd0 <shmat@plt>
    5bb3:	48 83 f8 ff          	cmp    $0xffffffffffffffff,%rax
    5bb7:	0f 84 0e 01 00 00    	je     5ccb <__afl_setup_abort>
    5bbd:	48 89 05 6c dd 74 00 	mov    %rax,0x74dd6c(%rip)        # 753930 <shmptr_cmp>
    5bc4:	48 8d 3d c6 02 00 00 	lea    0x2c6(%rip),%rdi        # 5e91 <.SHM_ENV_EDGE>
    5bcb:	e8 90 bc ff ff       	callq  1860 <getenv@plt>
    5bd0:	48 85 c0             	test   %rax,%rax
    5bd3:	0f 84 f2 00 00 00    	je     5ccb <__afl_setup_abort>
    5bd9:	48 89 c7             	mov    %rax,%rdi
    5bdc:	e8 0f c0 ff ff       	callq  1bf0 <atoi@plt>
    5be1:	48 31 d2             	xor    %rdx,%rdx
    5be4:	48 31 f6             	xor    %rsi,%rsi
    5be7:	48 89 c7             	mov    %rax,%rdi
    5bea:	e8 e1 bf ff ff       	callq  1bd0 <shmat@plt>
    5bef:	48 83 f8 ff          	cmp    $0xffffffffffffffff,%rax
    5bf3:	0f 84 d2 00 00 00    	je     5ccb <__afl_setup_abort>
    5bf9:	48 89 05 08 dd 74 00 	mov    %rax,0x74dd08(%rip)        # 753908 <shmptr_edge>

0000000000005c00 <__afl_forkserver>:
    5c00:	48 c7 c2 04 00 00 00 	mov    $0x4,%rdx
    5c07:	48 8d 35 6e 7f 5f 00 	lea    0x5f7f6e(%rip),%rsi        # 5fdb7c <__afl_temp>
    5c0e:	48 c7 c7 c5 00 00 00 	mov    $0xc5,%rdi
    5c15:	e8 b6 bc ff ff       	callq  18d0 <write@plt>
    5c1a:	48 83 f8 04          	cmp    $0x4,%rax
    5c1e:	0f 85 78 01 00 00    	jne    5d9c <__afl_fork_resume>

0000000000005c24 <__afl_fork_wait_loop>:
    5c24:	48 c7 c2 04 00 00 00 	mov    $0x4,%rdx
    5c2b:	48 8d 35 4a 7f 5f 00 	lea    0x5f7f4a(%rip),%rsi        # 5fdb7c <__afl_temp>
    5c32:	48 c7 c7 c4 00 00 00 	mov    $0xc4,%rdi
    5c39:	e8 02 be ff ff       	callq  1a40 <read@plt>
    5c3e:	48 83 f8 04          	cmp    $0x4,%rax
    5c42:	75 70                	jne    5cb4 <__afl_die>
    5c44:	e8 07 c0 ff ff       	callq  1c50 <fork@plt>
    5c49:	48 83 f8 00          	cmp    $0x0,%rax
    5c4d:	7c 65                	jl     5cb4 <__afl_die>
    5c4f:	0f 84 47 01 00 00    	je     5d9c <__afl_fork_resume>
    5c55:	89 05 1d 7f 5f 00    	mov    %eax,0x5f7f1d(%rip)        # 5fdb78 <__afl_fork_pid>
    5c5b:	48 c7 c2 04 00 00 00 	mov    $0x4,%rdx
    5c62:	48 8d 35 0f 7f 5f 00 	lea    0x5f7f0f(%rip),%rsi        # 5fdb78 <__afl_fork_pid>
    5c69:	48 c7 c7 c5 00 00 00 	mov    $0xc5,%rdi
    5c70:	e8 5b bc ff ff       	callq  18d0 <write@plt>
    5c75:	48 c7 c2 00 00 00 00 	mov    $0x0,%rdx
    5c7c:	48 8d 35 f9 7e 5f 00 	lea    0x5f7ef9(%rip),%rsi        # 5fdb7c <__afl_temp>
    5c83:	48 8b 3d ee 7e 5f 00 	mov    0x5f7eee(%rip),%rdi        # 5fdb78 <__afl_fork_pid>
    5c8a:	e8 f1 be ff ff       	callq  1b80 <waitpid@plt>
    5c8f:	48 83 f8 00          	cmp    $0x0,%rax
    5c93:	7e 1f                	jle    5cb4 <__afl_die>
    5c95:	48 c7 c2 04 00 00 00 	mov    $0x4,%rdx
    5c9c:	48 8d 35 d9 7e 5f 00 	lea    0x5f7ed9(%rip),%rsi        # 5fdb7c <__afl_temp>
    5ca3:	48 c7 c7 c5 00 00 00 	mov    $0xc5,%rdi
    5caa:	e8 21 bc ff ff       	callq  18d0 <write@plt>
    5caf:	e9 70 ff ff ff       	jmpq   5c24 <__afl_fork_wait_loop>

0000000000005cb4 <__afl_die>:
    5cb4:	48 8d 3d 27 02 00 00 	lea    0x227(%rip),%rdi        # 5ee2 <.serverDied>
    5cbb:	48 31 c0             	xor    %rax,%rax
    5cbe:	e8 cd bc ff ff       	callq  1990 <printf@plt>
    5cc3:	48 31 c0             	xor    %rax,%rax
    5cc6:	e8 e5 bb ff ff       	callq  18b0 <_exit@plt>

0000000000005ccb <__afl_setup_abort>:
    5ccb:	4c 89 e4             	mov    %r12,%rsp
    5cce:	41 5c                	pop    %r12
    5cd0:	48 8b 04 24          	mov    (%rsp),%rax
    5cd4:	48 8b 4c 24 08       	mov    0x8(%rsp),%rcx
    5cd9:	48 8b 7c 24 10       	mov    0x10(%rsp),%rdi
    5cde:	48 8b 74 24 20       	mov    0x20(%rsp),%rsi
    5ce3:	4c 8b 44 24 28       	mov    0x28(%rsp),%r8
    5ce8:	4c 8b 4c 24 30       	mov    0x30(%rsp),%r9
    5ced:	4c 8b 54 24 38       	mov    0x38(%rsp),%r10
    5cf2:	4c 8b 5c 24 40       	mov    0x40(%rsp),%r11
    5cf7:	f3 0f 7e 44 24 60    	movq   0x60(%rsp),%xmm0
    5cfd:	f3 0f 7e 4c 24 70    	movq   0x70(%rsp),%xmm1
    5d03:	f3 0f 7e 94 24 80 00 	movq   0x80(%rsp),%xmm2
    5d0a:	00 00 
    5d0c:	f3 0f 7e 9c 24 90 00 	movq   0x90(%rsp),%xmm3
    5d13:	00 00 
    5d15:	f3 0f 7e a4 24 a0 00 	movq   0xa0(%rsp),%xmm4
    5d1c:	00 00 
    5d1e:	f3 0f 7e ac 24 b0 00 	movq   0xb0(%rsp),%xmm5
    5d25:	00 00 
    5d27:	f3 0f 7e b4 24 c0 00 	movq   0xc0(%rsp),%xmm6
    5d2e:	00 00 
    5d30:	f3 0f 7e bc 24 d0 00 	movq   0xd0(%rsp),%xmm7
    5d37:	00 00 
    5d39:	f3 44 0f 7e 84 24 e0 	movq   0xe0(%rsp),%xmm8
    5d40:	00 00 00 
    5d43:	f3 44 0f 7e 8c 24 f0 	movq   0xf0(%rsp),%xmm9
    5d4a:	00 00 00 
    5d4d:	f3 44 0f 7e 94 24 00 	movq   0x100(%rsp),%xmm10
    5d54:	01 00 00 
    5d57:	f3 44 0f 7e 9c 24 10 	movq   0x110(%rsp),%xmm11
    5d5e:	01 00 00 
    5d61:	f3 44 0f 7e a4 24 20 	movq   0x120(%rsp),%xmm12
    5d68:	01 00 00 
    5d6b:	f3 44 0f 7e ac 24 30 	movq   0x130(%rsp),%xmm13
    5d72:	01 00 00 
    5d75:	f3 44 0f 7e b4 24 40 	movq   0x140(%rsp),%xmm14
    5d7c:	01 00 00 
    5d7f:	f3 44 0f 7e bc 24 50 	movq   0x150(%rsp),%xmm15
    5d86:	01 00 00 
    5d89:	48 8b 94 24 60 01 00 	mov    0x160(%rsp),%rdx
    5d90:	00 
    5d91:	48 8d a4 24 68 01 00 	lea    0x168(%rsp),%rsp
    5d98:	00 
    5d99:	b0 7f                	mov    $0x7f,%al
    5d9b:	c3                   	retq   

0000000000005d9c <__afl_fork_resume>:
    5d9c:	48 c7 c7 c4 00 00 00 	mov    $0xc4,%rdi
    5da3:	e8 68 bc ff ff       	callq  1a10 <close@plt>
    5da8:	48 c7 c7 c5 00 00 00 	mov    $0xc5,%rdi
    5daf:	e8 5c bc ff ff       	callq  1a10 <close@plt>
    5db4:	4c 89 e4             	mov    %r12,%rsp
    5db7:	41 5c                	pop    %r12
    5db9:	48 8b 04 24          	mov    (%rsp),%rax
    5dbd:	48 8b 4c 24 08       	mov    0x8(%rsp),%rcx
    5dc2:	48 8b 7c 24 10       	mov    0x10(%rsp),%rdi
    5dc7:	48 8b 74 24 20       	mov    0x20(%rsp),%rsi
    5dcc:	4c 8b 44 24 28       	mov    0x28(%rsp),%r8
    5dd1:	4c 8b 4c 24 30       	mov    0x30(%rsp),%r9
    5dd6:	4c 8b 54 24 38       	mov    0x38(%rsp),%r10
    5ddb:	4c 8b 5c 24 40       	mov    0x40(%rsp),%r11
    5de0:	f3 0f 7e 44 24 60    	movq   0x60(%rsp),%xmm0
    5de6:	f3 0f 7e 4c 24 70    	movq   0x70(%rsp),%xmm1
    5dec:	f3 0f 7e 94 24 80 00 	movq   0x80(%rsp),%xmm2
    5df3:	00 00 
    5df5:	f3 0f 7e 9c 24 90 00 	movq   0x90(%rsp),%xmm3
    5dfc:	00 00 
    5dfe:	f3 0f 7e a4 24 a0 00 	movq   0xa0(%rsp),%xmm4
    5e05:	00 00 
    5e07:	f3 0f 7e ac 24 b0 00 	movq   0xb0(%rsp),%xmm5
    5e0e:	00 00 
    5e10:	f3 0f 7e b4 24 c0 00 	movq   0xc0(%rsp),%xmm6
    5e17:	00 00 
    5e19:	f3 0f 7e bc 24 d0 00 	movq   0xd0(%rsp),%xmm7
    5e20:	00 00 
    5e22:	f3 44 0f 7e 84 24 e0 	movq   0xe0(%rsp),%xmm8
    5e29:	00 00 00 
    5e2c:	f3 44 0f 7e 8c 24 f0 	movq   0xf0(%rsp),%xmm9
    5e33:	00 00 00 
    5e36:	f3 44 0f 7e 94 24 00 	movq   0x100(%rsp),%xmm10
    5e3d:	01 00 00 
    5e40:	f3 44 0f 7e 9c 24 10 	movq   0x110(%rsp),%xmm11
    5e47:	01 00 00 
    5e4a:	f3 44 0f 7e a4 24 20 	movq   0x120(%rsp),%xmm12
    5e51:	01 00 00 
    5e54:	f3 44 0f 7e ac 24 30 	movq   0x130(%rsp),%xmm13
    5e5b:	01 00 00 
    5e5e:	f3 44 0f 7e b4 24 40 	movq   0x140(%rsp),%xmm14
    5e65:	01 00 00 
    5e68:	f3 44 0f 7e bc 24 50 	movq   0x150(%rsp),%xmm15
    5e6f:	01 00 00 
    5e72:	48 8b 94 24 60 01 00 	mov    0x160(%rsp),%rdx
    5e79:	00 
    5e7a:	48 8d a4 24 68 01 00 	lea    0x168(%rsp),%rsp
    5e81:	00 
    5e82:	b0 00                	mov    $0x0,%al
    5e84:	c3                   	retq   

0000000000005e85 <.SHM_ENV_CMP>:
    5e85:	53                   	push   %rbx
    5e86:	48                   	rex.W
    5e87:	4d 5f                	rex.WRB pop %r15
    5e89:	45                   	rex.RB
    5e8a:	4e 56                	rex.WRX push %rsi
    5e8c:	5f                   	pop    %rdi
    5e8d:	43                   	rex.XB
    5e8e:	4d 50                	rex.WRB push %r8
	...

0000000000005e91 <.SHM_ENV_EDGE>:
    5e91:	53                   	push   %rbx
    5e92:	48                   	rex.W
    5e93:	4d 5f                	rex.WRB pop %r15
    5e95:	45                   	rex.RB
    5e96:	4e 56                	rex.WRX push %rsi
    5e98:	5f                   	pop    %rdi
    5e99:	45                   	rex.RB
    5e9a:	44                   	rex.R
    5e9b:	47                   	rex.RXB
    5e9c:	45                   	rex.RB
	...

0000000000005e9e <.SHM_ENV_GCNT>:
    5e9e:	53                   	push   %rbx
    5e9f:	48                   	rex.W
    5ea0:	4d 5f                	rex.WRB pop %r15
    5ea2:	45                   	rex.RB
    5ea3:	4e 56                	rex.WRX push %rsi
    5ea5:	5f                   	pop    %rdi
    5ea6:	47                   	rex.RXB
    5ea7:	43                   	rex.XB
    5ea8:	4e 54                	rex.WRX push %rsp
	...

0000000000005eab <.serverSetupError>:
    5eab:	20 53 65             	and    %dl,0x65(%rbx)
    5eae:	72 76                	jb     5f26 <_storeEdge+0x1e>
    5eb0:	65 72 20             	gs jb  5ed3 <.serverSetupError+0x28>
    5eb3:	53                   	push   %rbx
    5eb4:	65 74 75             	gs je  5f2c <_storeEdge+0x24>
    5eb7:	70 20                	jo     5ed9 <.serverSetupError+0x2e>
    5eb9:	45 72 72             	rex.RB jb 5f2e <_storeEdge+0x26>
    5ebc:	6f                   	outsl  %ds:(%rsi),(%dx)
    5ebd:	72 2c                	jb     5eeb <.serverDied+0x9>
    5ebf:	20 63 6f             	and    %ah,0x6f(%rbx)
    5ec2:	6e                   	outsb  %ds:(%rsi),(%dx)
    5ec3:	74 69                	je     5f2e <_storeEdge+0x26>
    5ec5:	6e                   	outsb  %ds:(%rsi),(%dx)
    5ec6:	75 65                	jne    5f2d <_storeEdge+0x25>
    5ec8:	20 72 75             	and    %dh,0x75(%rdx)
    5ecb:	6e                   	outsb  %ds:(%rsi),(%dx)
    5ecc:	6e                   	outsb  %ds:(%rsi),(%dx)
    5ecd:	69 67 20 77 69 74 68 	imul   $0x68746977,0x20(%rdi),%esp
    5ed4:	6f                   	outsl  %ds:(%rsi),(%dx)
    5ed5:	75 74                	jne    5f4b <_storeEdge+0x43>
    5ed7:	20 73 65             	and    %dh,0x65(%rbx)
    5eda:	72 76                	jb     5f52 <_caledgehash>
    5edc:	65 72 20             	gs jb  5eff <.debug+0xa>
    5edf:	0a 20                	or     (%rax),%ah
	...

0000000000005ee2 <.serverDied>:
    5ee2:	20 53 65             	and    %dl,0x65(%rbx)
    5ee5:	72 76                	jb     5f5d <_caledgehash+0xb>
    5ee7:	65 72 20             	gs jb  5f0a <_storeEdge+0x2>
    5eea:	69 73 20 64 65 61 64 	imul   $0x64616564,0x20(%rbx),%esi
    5ef1:	20 0a                	and    %cl,(%rdx)
    5ef3:	20 00                	and    %al,(%rax)

0000000000005ef5 <.debug>:
    5ef5:	64 65 62             	fs gs (bad) 
    5ef8:	75 67                	jne    5f61 <_caledgehash+0xf>
    5efa:	20 6d 65             	and    %ch,0x65(%rbp)
    5efd:	73 73                	jae    5f72 <_caledgehash+0x20>
    5eff:	61                   	(bad)  
    5f00:	67 65 3a 20          	cmp    %gs:(%eax),%ah
    5f04:	0a 20                	or     (%rax),%ah
    5f06:	00                   	.byte 0x0
    5f07:	90                   	nop

0000000000005f08 <_storeEdge>:
    5f08:	50                   	push   %rax
    5f09:	53                   	push   %rbx
    5f0a:	51                   	push   %rcx
    5f0b:	52                   	push   %rdx
    5f0c:	48 83 3d 3c da 74 00 	cmpq   $0x1,0x74da3c(%rip)        # 753950 <cmpPassed>
    5f13:	01 
    5f14:	75 3c                	jne    5f52 <_caledgehash>
    5f16:	48 c7 05 2f da 74 00 	movq   $0x0,0x74da2f(%rip)        # 753950 <cmpPassed>
    5f1d:	00 00 00 00 
    5f21:	48 8b 05 00 7d 5f 00 	mov    0x5f7d00(%rip),%rax        # 5fdc28 <edgeCnt>
    5f28:	48 c1 e0 03          	shl    $0x3,%rax
    5f2c:	48 3b 05 b5 7c 5f 00 	cmp    0x5f7cb5(%rip),%rax        # 5fdbe8 <shmSize2>
    5f33:	77 55                	ja     5f8a <_shm2Full>
    5f35:	48 8b 1d d4 d9 74 00 	mov    0x74d9d4(%rip),%rbx        # 753910 <edgehash>
    5f3c:	48 8b 15 c5 d9 74 00 	mov    0x74d9c5(%rip),%rdx        # 753908 <shmptr_edge>
    5f43:	48 8d 0c 10          	lea    (%rax,%rdx,1),%rcx
    5f47:	48 89 19             	mov    %rbx,(%rcx)
    5f4a:	48 83 05 d6 7c 5f 00 	addq   $0x1,0x5f7cd6(%rip)        # 5fdc28 <edgeCnt>
    5f51:	01 

0000000000005f52 <_caledgehash>:
    5f52:	48 8b 15 b7 d9 74 00 	mov    0x74d9b7(%rip),%rdx        # 753910 <edgehash>
    5f59:	48 89 d0             	mov    %rdx,%rax
    5f5c:	48 c1 e0 05          	shl    $0x5,%rax
    5f60:	48 01 c2             	add    %rax,%rdx
    5f63:	48 8b 05 d6 d9 74 00 	mov    0x74d9d6(%rip),%rax        # 753940 <edgeId>
    5f6a:	48 01 d0             	add    %rdx,%rax
    5f6d:	48 89 05 9c d9 74 00 	mov    %rax,0x74d99c(%rip)        # 753910 <edgehash>
    5f74:	48 b8 ff ff ff ff 00 	movabs $0xffffffff,%rax
    5f7b:	00 00 00 
    5f7e:	48 21 05 8b d9 74 00 	and    %rax,0x74d98b(%rip)        # 753910 <edgehash>
    5f85:	5a                   	pop    %rdx
    5f86:	59                   	pop    %rcx
    5f87:	5b                   	pop    %rbx
    5f88:	58                   	pop    %rax
    5f89:	c3                   	retq   

0000000000005f8a <_shm2Full>:
    5f8a:	48 c7 c0 0f 00 00 00 	mov    $0xf,%rax
    5f91:	5a                   	pop    %rdx
    5f92:	59                   	pop    %rcx
    5f93:	5b                   	pop    %rbx
    5f94:	58                   	pop    %rax
    5f95:	e8 16 b9 ff ff       	callq  18b0 <_exit@plt>
    5f9a:	66 0f 1f 44 00 00    	nopw   0x0(%rax,%rax,1)

0000000000005fa0 <_storeDataFn>:
    5fa0:	55                   	push   %rbp
    5fa1:	48 89 e5             	mov    %rsp,%rbp
    5fa4:	50                   	push   %rax
    5fa5:	53                   	push   %rbx
    5fa6:	41 50                	push   %r8
    5fa8:	41 51                	push   %r9
    5faa:	41 52                	push   %r10
    5fac:	48 8b 05 85 d9 74 00 	mov    0x74d985(%rip),%rax        # 753938 <shmptr_gcnt>
    5fb3:	48 8b 00             	mov    (%rax),%rax
    5fb6:	48 c1 e0 03          	shl    $0x3,%rax
    5fba:	48 83 c0 30          	add    $0x30,%rax
    5fbe:	48 3b 05 83 d9 74 00 	cmp    0x74d983(%rip),%rax        # 753948 <shmSize>
    5fc5:	0f 83 8f 01 00 00    	jae    615a <_shmFull>
    5fcb:	48 83 3d 5d d9 74 00 	cmpq   $0x0,0x74d95d(%rip)        # 753930 <shmptr_cmp>
    5fd2:	00 
    5fd3:	0f 84 99 01 00 00    	je     6172 <_shmUninitialize>
    5fd9:	48 c7 c3 00 00 00 00 	mov    $0x0,%rbx
    5fe0:	48 83 e8 30          	sub    $0x30,%rax
    5fe4:	48 c1 e8 03          	shr    $0x3,%rax

0000000000005fe8 <_storeloop>:
    5fe8:	49 89 c2             	mov    %rax,%r10
    5feb:	49 c1 e2 03          	shl    $0x3,%r10
    5fef:	4c 03 15 3a d9 74 00 	add    0x74d93a(%rip),%r10        # 753930 <shmptr_cmp>
    5ff6:	49 89 d9             	mov    %rbx,%r9
    5ff9:	49 c1 e1 03          	shl    $0x3,%r9
    5ffd:	4c 8d 05 ec 7b 5f 00 	lea    0x5f7bec(%rip),%r8        # 5fdbf0 <funcinptr>
    6004:	4d 01 c1             	add    %r8,%r9
    6007:	4d 8b 01             	mov    (%r9),%r8
    600a:	4d 89 02             	mov    %r8,(%r10)
    600d:	48 83 fb 00          	cmp    $0x0,%rbx
    6011:	75 07                	jne    601a <_no_get_cmpid>
    6013:	4c 89 05 0e d9 74 00 	mov    %r8,0x74d90e(%rip)        # 753928 <cmpid>

000000000000601a <_no_get_cmpid>:
    601a:	48 ff c0             	inc    %rax
    601d:	48 ff c3             	inc    %rbx
    6020:	48 83 fb 06          	cmp    $0x6,%rbx
    6024:	75 c2                	jne    5fe8 <_storeloop>
    6026:	48 8b 1d 0b d9 74 00 	mov    0x74d90b(%rip),%rbx        # 753938 <shmptr_gcnt>
    602d:	48 89 03             	mov    %rax,(%rbx)
    6030:	48 8b 05 f1 d8 74 00 	mov    0x74d8f1(%rip),%rax        # 753928 <cmpid>
    6037:	48 c1 e0 04          	shl    $0x4,%rax
    603b:	48 89 c3             	mov    %rax,%rbx
    603e:	48 83 c3 08          	add    $0x8,%rbx
    6042:	48 81 fb c0 5c 15 00 	cmp    $0x155cc0,%rbx
    6049:	0f 83 17 01 00 00    	jae    6166 <_cmpdictFull>
    604f:	48 8d 1d ea 7b 5f 00 	lea    0x5f7bea(%rip),%rbx        # 5fdc40 <cmpid_dict>
    6056:	48 01 d8             	add    %rbx,%rax
    6059:	48 83 38 00          	cmpq   $0x0,(%rax)
    605d:	0f 84 db 00 00 00    	je     613e <_insert_entry>
    6063:	49 c7 c0 00 00 00 00 	mov    $0x0,%r8

000000000000606a <_remove_repeated_cycle>:
    606a:	4d 89 c1             	mov    %r8,%r9
    606d:	4d 89 ca             	mov    %r9,%r10
    6070:	49 c1 e1 02          	shl    $0x2,%r9
    6074:	4d 01 d1             	add    %r10,%r9
    6077:	4d 01 d1             	add    %r10,%r9
    607a:	4c 8b 15 b7 d8 74 00 	mov    0x74d8b7(%rip),%r10        # 753938 <shmptr_gcnt>
    6081:	4d 8b 12             	mov    (%r10),%r10
    6084:	4c 2b 10             	sub    (%rax),%r10
    6087:	4c 3b 10             	cmp    (%rax),%r10
    608a:	0f 87 9f 00 00 00    	ja     612f <_no_remove_cycle>
    6090:	4d 39 ca             	cmp    %r9,%r10
    6093:	76 67                	jbe    60fc <_remove_cycle>
    6095:	4d 89 c1             	mov    %r8,%r9
    6098:	49 83 c1 01          	add    $0x1,%r9
    609c:	4d 89 ca             	mov    %r9,%r10
    609f:	49 c1 e1 02          	shl    $0x2,%r9
    60a3:	4d 01 d1             	add    %r10,%r9
    60a6:	4d 01 d1             	add    %r10,%r9
    60a9:	4c 8b 15 88 d8 74 00 	mov    0x74d888(%rip),%r10        # 753938 <shmptr_gcnt>
    60b0:	4d 8b 12             	mov    (%r10),%r10
    60b3:	4d 29 ca             	sub    %r9,%r10
    60b6:	49 c1 e2 03          	shl    $0x3,%r10
    60ba:	4c 8b 0d 6f d8 74 00 	mov    0x74d86f(%rip),%r9        # 753930 <shmptr_cmp>
    60c1:	4d 01 d1             	add    %r10,%r9
    60c4:	49 8b 19             	mov    (%r9),%rbx
    60c7:	4d 89 c1             	mov    %r8,%r9
    60ca:	49 83 c1 01          	add    $0x1,%r9
    60ce:	4d 89 ca             	mov    %r9,%r10
    60d1:	49 c1 e1 02          	shl    $0x2,%r9
    60d5:	4d 01 d1             	add    %r10,%r9
    60d8:	4d 01 d1             	add    %r10,%r9
    60db:	4c 8b 10             	mov    (%rax),%r10
