	.file	"test.cpp"
	.text
.Ltext0:
	.align 2
	.p2align 4,,15
	.type	_ZNSs4_Rep10_M_disposeERKSaIcE.part.1, @function
_ZNSs4_Rep10_M_disposeERKSaIcE.part.1:
.LFB2261:
	.file 1 "/usr/include/c++/7/bits/basic_string.h"
	.loc 1 3240 0
	.cfi_startproc
.LVL0:
.LBB462:
.LBB463:
	.file 2 "/usr/include/c++/7/ext/atomicity.h"
	.loc 2 81 0

/* --- trampoline on after_cmp start --- */ 

movq %rdx, tmpquadone(%rip) 
movq %rcx, tmpquadtwo(%rip) 
leaq funcinptr(%rip), %rdx 
movq $11, (%rdx)
movq $'q', 8(%rdx)
movq $0, %rcx 
movq %rcx, 16(%rdx)
movq $0, 24(%rdx)
movq _ZL28__gthrw___pthread_key_createPjPFvPvE@GOTPCREL(%rip), %rcx 
movq %rcx, 32(%rdx)
movq $0, 40(%rdx)
push (%rdx) 
movq tmpquadone(%rip), %rdx 
movq tmpquadtwo(%rip), %rcx 
movq $1, cmpPassed(%rip) 
call _storeDataFn 

/* --- trampoline on after_cmp end - */ 

	cmpq	$0, _ZL28__gthrw___pthread_key_createPjPFvPvE@GOTPCREL(%rip)
	je	.L2

/* --- trampoline on edge start --- */ 
pushq %rax 
movq $2576105472, %rax 
movq %rax, edgeId(%rip) 
popq %rax 
call _storeEdge 

/* --- trampoline on edge end --- */ 

.LVL1:
.LBB464:
.LBB465:
	.loc 2 49 0
	orl	$-1, %eax
	lock xaddl	%eax, 16(%rdi)
.LVL2:
.L3:

/* --- trampoline on edge start --- */ 
pushq %rax 
movq $161057856, %rax 
movq %rax, edgeId(%rip) 
popq %rax 
call _storeEdge 

/* --- trampoline on edge end --- */ 

.LBE465:
.LBE464:
.LBE463:
.LBE462:
	.loc 1 3256 0
	testl	%eax, %eax
	jle	.L6

/* --- trampoline on edge start --- */ 
pushq %rax 
movq $2551395096, %rax 
movq %rax, edgeId(%rip) 
popq %rax 
call _storeEdge 

/* --- trampoline on edge end --- */ 

	.loc 1 3263 0
	rep ret
.LVL3:
.L2:

/* --- trampoline on edge start --- */ 
pushq %rax 
movq $3649123121, %rax 
movq %rax, edgeId(%rip) 
popq %rax 
call _storeEdge 

/* --- trampoline on edge end --- */ 

.LBB469:
.LBB468:
.LBB466:
.LBB467:
	.loc 2 67 0
	movl	16(%rdi), %eax
.LVL4:
	.loc 2 68 0
	leal	-1(%rax), %edx
	movl	%edx, 16(%rdi)
.LVL5:
	jmp	.L3
.LVL6:
.L6:

/* --- trampoline on edge start --- */ 
pushq %rax 
movq $1162307076, %rax 
movq %rax, edgeId(%rip) 
popq %rax 
call _storeEdge 

/* --- trampoline on edge end --- */ 

.LBE467:
.LBE466:
.LBE468:
.LBE469:
	.loc 1 3260 0
	jmp	_ZNSs4_Rep10_M_destroyERKSaIcE@PLT
.LVL7:
	.cfi_endproc
.LFE2261:
	.size	_ZNSs4_Rep10_M_disposeERKSaIcE.part.1, .-_ZNSs4_Rep10_M_disposeERKSaIcE.part.1
	.section	.rodata.str1.1,"aMS",@progbits,1
.LC0:
	.string	"AAA"
.LC1:
	.string	" "
	.section	.text.startup,"ax",@progbits
	.p2align 4,,15
	.globl	main
	.type	main, @function
main:

/* --- trampoline on server start --- */ 
  movq %rax, tmpquadrax(%rip)
  movq %rdi, tmpquadrdi(%rip) 
  movq %rsi, tmpquadrsi(%rip) 
  call __afl_setup_first
  cmpb $127, %al 
  jne runSUT
  leaq .serverSetupError(%rip), %rdi 
  xorq %rax, %rax 
call printf@PLT
  movq $1048576,  %rdi 
call malloc@PLT
  movq %rax, shmptr_edge(%rip)  
  movq $1048576,  %rdi 
call malloc@PLT
  movq %rax, shmptr_cmp(%rip)  
  movq $64,  %rdi 
call malloc@PLT
  movq %rax, shmptr_gcnt(%rip)  
runSUT:
  movq tmpquadrax(%rip), %rax
  movq tmpquadrsi(%rip), %rsi

/* --- trampoline on server end --- */ 
.LFB1766:
	.file 3 "test.cpp"
	.loc 3 8 0
	.cfi_startproc
	.cfi_personality 0x9b,DW.ref.__gxx_personality_v0
	.cfi_lsda 0x1b,.LLSDA1766
.LVL8:
	pushq	%r14
	.cfi_def_cfa_offset 16
	.cfi_offset 14, -16
	pushq	%r13
	.cfi_def_cfa_offset 24
	.cfi_offset 13, -24
	.loc 3 14 0
	movl	$8, %edx
	.loc 3 8 0
	pushq	%r12
	.cfi_def_cfa_offset 32
	.cfi_offset 12, -32
	pushq	%rbp
	.cfi_def_cfa_offset 40
	.cfi_offset 6, -40
.LBB470:
.LBB471:
.LBB472:
.LBB473:
	.loc 1 3286 0
	leaq	24+_ZNSs4_Rep20_S_empty_rep_storageE(%rip), %r12
.LBE473:
.LBE472:
.LBE471:
.LBE470:
	.loc 3 8 0
	pushq	%rbx
	.cfi_def_cfa_offset 48
	.cfi_offset 3, -48
	subq	$1680, %rsp
	.cfi_def_cfa_offset 1728
	.loc 3 14 0
	movq	8(%rsi), %rsi
.LVL9:
	leaq	1152(%rsp), %rbp
	.loc 3 17 0
	leaq	24(%rsp), %r13
	.loc 3 8 0
	movq	%fs:40, %rax
	movq	%rax, 1672(%rsp)
	xorl	%eax, %eax
	.loc 3 14 0
	movq	%rbp, %rdi
.LVL10:
.LEHB0:
	call	_ZNSt14basic_ifstreamIcSt11char_traitsIcEEC1EPKcSt13_Ios_Openmode@PLT
.LVL11:
.LEHE0:
	.loc 3 17 0
	movq	%r13, %rsi
	movq	%rbp, %rdi
.LBB477:
.LBB476:
.LBB475:
.LBB474:
	.loc 1 3286 0
	movq	%r12, 24(%rsp)
.LVL12:
.LEHB1:
.LBE474:
.LBE475:
.LBE476:
.LBE477:
	.loc 3 17 0
	call	_ZSt7getlineIcSt11char_traitsIcESaIcEERSt13basic_istreamIT_T0_ES7_RSbIS4_S5_T1_E@PLT
.LVL13:
.LBB478:
.LBB479:
.LBB480:
.LBB481:
.LBB482:
.LBB483:
.LBB484:
	.loc 1 3304 0
	movq	24(%rsp), %rsi
.LVL14:
.LBE484:
.LBE483:
.LBE482:
.LBE481:
.LBE480:
	.loc 1 6289 0
	leaq	_ZSt4cout(%rip), %rdi
	movq	-24(%rsi), %rdx
	call	_ZSt16__ostream_insertIcSt11char_traitsIcEERSt13basic_ostreamIT_T0_ES6_PKS3_l@PLT
.LVL15:
.LBE479:
.LBE478:
.LBB485:
.LBB486:
	.file 4 "/usr/include/c++/7/ostream"
	.loc 4 113 0
	movq	%rax, %rdi
	call	_ZSt4endlIcSt11char_traitsIcEERSt13basic_ostreamIT_T0_ES6_@PLT
.LVL16:
.LBE486:
.LBE485:
.LBB487:
.LBB488:
	.loc 1 3977 0
	movq	%r13, %rdi
	call	_ZNSs7_M_leakEv@PLT
.LVL17:
.LBE488:
.LBE487:
	.loc 3 20 0
	movq	24(%rsp), %rax

/* --- trampoline on after_cmp start --- */ 

movq %rdx, tmpquadone(%rip) 
movq %rcx, tmpquadtwo(%rip) 
leaq funcinptr(%rip), %rdx 
movq $12, (%rdx)
movq $'b', 8(%rdx)
movq $97, %rcx 
movq %rcx, 16(%rdx)
movq $0, 24(%rdx)
movq 12(%rax), %rcx 
movq %rcx, 32(%rdx)
movq $0, 40(%rdx)
push (%rdx) 
movq tmpquadone(%rip), %rdx 
movq tmpquadtwo(%rip), %rcx 
movq $1, cmpPassed(%rip) 
call _storeDataFn 

/* --- trampoline on after_cmp end - */ 

	cmpb	$97, 12(%rax)
	je	.L8

/* --- trampoline on edge start --- */ 
pushq %rax 
movq $777549925, %rax 
movq %rax, edgeId(%rip) 
popq %rax 
call _storeEdge 

/* --- trampoline on edge end --- */ 

.L10:

/* --- trampoline on edge start --- */ 
pushq %rax 
movq $388774962, %rax 
movq %rax, edgeId(%rip) 
popq %rax 
call _storeEdge 

/* --- trampoline on edge end --- */ 

	.loc 3 23 0
	leaq	48(%rsp), %rbx
	movl	$8, %edx
	movq	%r13, %rsi
	movq	%rbx, %rdi
	call	_ZNSt19basic_istringstreamIcSt11char_traitsIcESaIcEEC1ERKSsSt13_Ios_Openmode@PLT
.LVL18:
.LEHE1:
	.loc 3 28 0
	leaq	32(%rsp), %r13
.LVL19:
	movl	$32, %edx
	movq	%rbx, %rdi
.LBB489:
.LBB490:
.LBB491:
.LBB492:
	.loc 1 3286 0
	movq	%r12, 32(%rsp)
.LVL20:
.LBE492:
.LBE491:
.LBE490:
.LBE489:
.LBB493:
.LBB494:
.LBB495:
.LBB496:
	movq	%r12, 40(%rsp)
.LVL21:
.LBE496:
.LBE495:
.LBE494:
.LBE493:
	.loc 3 28 0
	movq	%r13, %rsi
.LEHB2:
	call	_ZSt7getlineIcSt11char_traitsIcESaIcEERSt13basic_istreamIT_T0_ES7_RSbIS4_S5_T1_ES4_@PLT
.LVL22:
	.loc 3 29 0
	leaq	40(%rsp), %r14
.LVL23:
	movl	$32, %edx
	movq	%rbx, %rdi
	movq	%r14, %rsi
	call	_ZSt7getlineIcSt11char_traitsIcESaIcEERSt13basic_istreamIT_T0_ES7_RSbIS4_S5_T1_ES4_@PLT
.LVL24:
	.loc 3 30 0
	leaq	416(%rsp), %r12
	movl	$8, %edx
	movq	%r13, %rsi
	movq	%r12, %rdi
	call	_ZNSt19basic_istringstreamIcSt11char_traitsIcESaIcEEC1ERKSsSt13_Ios_Openmode@PLT
.LVL25:
.LEHE2:
	.loc 3 31 0
	leaq	784(%rsp), %r13
	movl	$8, %edx
	movq	%r14, %rsi
	movq	%r13, %rdi
.LEHB3:
	call	_ZNSt19basic_istringstreamIcSt11char_traitsIcESaIcEEC1ERKSsSt13_Ios_Openmode@PLT
.LVL26:
.LEHE3:
	.loc 3 32 0
	leaq	16(%rsp), %rsi
	movq	%r12, %rdi
.LEHB4:
	call	_ZNSirsERi@PLT
.LVL27:
	.loc 3 33 0
	leaq	20(%rsp), %rsi
	movq	%r13, %rdi
	call	_ZNSirsERi@PLT
.LVL28:
	.loc 3 34 0
	movl	16(%rsp), %esi
	leaq	_ZSt4cout(%rip), %rdi
	call	_ZNSolsEi@PLT
.LVL29:
.LBB497:
.LBB498:
	.loc 4 561 0
	leaq	.LC1(%rip), %rsi
	movl	$1, %edx
	movq	%rax, %rdi
.LBE498:
.LBE497:
	.loc 3 34 0
	movq	%rax, %r14
.LVL30:
.LBB500:
.LBB499:
	.loc 4 561 0
	call	_ZSt16__ostream_insertIcSt11char_traitsIcEERSt13basic_ostreamIT_T0_ES6_PKS3_l@PLT
.LVL31:
.LBE499:
.LBE500:
	.loc 3 34 0
	movl	20(%rsp), %esi
	movq	%r14, %rdi
	call	_ZNSolsEi@PLT
.LVL32:
.LBB501:
.LBB502:
	.loc 4 113 0
	movq	%rax, %rdi
	call	_ZSt4endlIcSt11char_traitsIcEERSt13basic_ostreamIT_T0_ES6_@PLT
.LVL33:
.LEHE4:
.LBE502:
.LBE501:
.LBB503:
	.loc 3 35 0

/* --- trampoline on after_cmp start --- */ 

movq %rdx, tmpquadone(%rip) 
movq %rcx, tmpquadtwo(%rip) 
leaq funcinptr(%rip), %rdx 
movq $13, (%rdx)
movq $'l', 8(%rdx)
movq $65535, %rcx 
movq %rcx, 16(%rdx)
movq $0, 24(%rdx)
movq 16(%rsp), %rcx 
movq %rcx, 32(%rdx)
movq $0, 40(%rdx)
push (%rdx) 
movq tmpquadone(%rip), %rdx 
movq tmpquadtwo(%rip), %rcx 
movq $1, cmpPassed(%rip) 
call _storeDataFn 

/* --- trampoline on after_cmp end - */ 

	cmpl	$65535, 16(%rsp)
	je	.L30

/* --- trampoline on edge start --- */ 
pushq %rax 
movq $2998878865, %rax 
movq %rax, edgeId(%rip) 
popq %rax 
call _storeEdge 

/* --- trampoline on edge end --- */ 

.L11:

/* --- trampoline on edge start --- */ 
pushq %rax 
movq $3646923080, %rax 
movq %rax, edgeId(%rip) 
popq %rax 
call _storeEdge 

/* --- trampoline on edge end --- */ 

.LBE503:
	.loc 3 31 0
	movq	%r13, %rdi
	call	_ZNSt19basic_istringstreamIcSt11char_traitsIcESaIcEED1Ev@PLT
.LVL34:
	.loc 3 30 0
	movq	%r12, %rdi
.LBB506:
.LBB507:
.LBB508:
.LBB509:
	.loc 1 3243 0
	leaq	_ZNSs4_Rep20_S_empty_rep_storageE(%rip), %r12
.LBE509:
.LBE508:
.LBE507:
.LBE506:
	.loc 3 30 0
	call	_ZNSt19basic_istringstreamIcSt11char_traitsIcESaIcEED1Ev@PLT
.LVL35:
.LBB518:
.LBB516:
.LBB512:
.LBB513:
	.loc 1 3312 0
	movq	40(%rsp), %rdx
	leaq	-24(%rdx), %rdi
.LVL36:
.LBE513:
.LBE512:
.LBB514:
.LBB510:
	.loc 1 3243 0

/* --- trampoline on after_cmp start --- */ 

movq %rdx, tmpquadone(%rip) 
movq %rcx, tmpquadtwo(%rip) 
leaq funcinptr(%rip), %rdx 
movq $14, (%rdx)
movq $'q', 8(%rdx)
movq %r12, %rcx 
movq %rcx, 16(%rdx)
movq $0, 24(%rdx)
movq %rdi, %rcx 
movq %rcx, 32(%rdx)
movq $0, 40(%rdx)
push (%rdx) 
movq tmpquadone(%rip), %rdx 
movq tmpquadtwo(%rip), %rcx 
movq $1, cmpPassed(%rip) 
call _storeDataFn 

/* --- trampoline on after_cmp end - */ 

	cmpq	%r12, %rdi
	jne	.L31

/* --- trampoline on edge start --- */ 
pushq %rax 
movq $333641797, %rax 
movq %rax, edgeId(%rip) 
popq %rax 
call _storeEdge 

/* --- trampoline on edge end --- */ 

.L12:

/* --- trampoline on edge start --- */ 
pushq %rax 
movq $2314304546, %rax 
movq %rax, edgeId(%rip) 
popq %rax 
call _storeEdge 

/* --- trampoline on edge end --- */ 

.LVL37:
.LBE510:
.LBE514:
.LBE516:
.LBE518:
.LBB519:
.LBB520:
.LBB521:
.LBB522:
	.loc 1 3312 0
	movq	32(%rsp), %rcx
	leaq	-24(%rcx), %rdi
.LVL38:
.LBE522:
.LBE521:
.LBB523:
.LBB524:
	.loc 1 3243 0

/* --- trampoline on after_cmp start --- */ 

movq %rdx, tmpquadone(%rip) 
movq %rcx, tmpquadtwo(%rip) 
leaq funcinptr(%rip), %rdx 
movq $15, (%rdx)
movq $'q', 8(%rdx)
movq %r12, %rcx 
movq %rcx, 16(%rdx)
movq $0, 24(%rdx)
movq %rdi, %rcx 
movq %rcx, 32(%rdx)
movq $0, 40(%rdx)
push (%rdx) 
movq tmpquadone(%rip), %rdx 
movq tmpquadtwo(%rip), %rcx 
movq $1, cmpPassed(%rip) 
call _storeDataFn 

/* --- trampoline on after_cmp end - */ 

	cmpq	%r12, %rdi
	jne	.L32

/* --- trampoline on edge start --- */ 
pushq %rax 
movq $1427679391, %rax 
movq %rax, edgeId(%rip) 
popq %rax 
call _storeEdge 

/* --- trampoline on edge end --- */ 

.L13:

/* --- trampoline on edge start --- */ 
pushq %rax 
movq $713839695, %rax 
movq %rax, edgeId(%rip) 
popq %rax 
call _storeEdge 

/* --- trampoline on edge end --- */ 

.LVL39:
.LBE524:
.LBE523:
.LBE520:
.LBE519:
	.loc 3 23 0
	movq	%rbx, %rdi
	call	_ZNSt19basic_istringstreamIcSt11char_traitsIcESaIcEED1Ev@PLT
.LVL40:
.LBB528:
.LBB529:
.LBB530:
.LBB531:
	.loc 1 3312 0
	movq	24(%rsp), %rbx
	leaq	-24(%rbx), %rdi
.LVL41:
.LBE531:
.LBE530:
.LBB532:
.LBB533:
	.loc 1 3243 0

/* --- trampoline on after_cmp start --- */ 

movq %rdx, tmpquadone(%rip) 
movq %rcx, tmpquadtwo(%rip) 
leaq funcinptr(%rip), %rdx 
movq $16, (%rdx)
movq $'q', 8(%rdx)
movq %r12, %rcx 
movq %rcx, 16(%rdx)
movq $0, 24(%rdx)
movq %rdi, %rcx 
movq %rcx, 32(%rdx)
movq $0, 40(%rdx)
push (%rdx) 
movq tmpquadone(%rip), %rdx 
movq tmpquadtwo(%rip), %rcx 
movq $1, cmpPassed(%rip) 
call _storeDataFn 

/* --- trampoline on after_cmp end - */ 

	cmpq	%r12, %rdi
	jne	.L33

/* --- trampoline on edge start --- */ 
pushq %rax 
movq $4028123434, %rax 
movq %rax, edgeId(%rip) 
popq %rax 
call _storeEdge 

/* --- trampoline on edge end --- */ 

.L14:

/* --- trampoline on edge start --- */ 
pushq %rax 
movq $2014061717, %rax 
movq %rax, edgeId(%rip) 
popq %rax 
call _storeEdge 

/* --- trampoline on edge end --- */ 

.LVL42:
.LBE533:
.LBE532:
.LBE529:
.LBE528:
	.loc 3 14 0
	movq	%rbp, %rdi
	call	_ZNSt14basic_ifstreamIcSt11char_traitsIcEED1Ev@PLT
.LVL43:
	.loc 3 41 0
	xorl	%eax, %eax
	movq	1672(%rsp), %rcx
	xorq	%fs:40, %rcx
	jne	.L34

/* --- trampoline on edge start --- */ 
pushq %rax 
movq $2813452336, %rax 
movq %rax, edgeId(%rip) 
popq %rax 
call _storeEdge 

/* --- trampoline on edge end --- */ 

	addq	$1680, %rsp
	.cfi_remember_state
	.cfi_def_cfa_offset 48
	popq	%rbx
	.cfi_def_cfa_offset 40
	popq	%rbp
	.cfi_def_cfa_offset 32
	popq	%r12
	.cfi_def_cfa_offset 24
	popq	%r13
	.cfi_def_cfa_offset 16
	popq	%r14
	.cfi_def_cfa_offset 8
	ret
.LVL44:
.L8:

/* --- trampoline on edge start --- */ 
pushq %rax 
movq $4068517809, %rax 
movq %rax, edgeId(%rip) 
popq %rax 
call _storeEdge 

/* --- trampoline on edge end --- */ 

	.cfi_restore_state
.LBB537:
.LBB538:
	.loc 4 561 0
	leaq	.LC0(%rip), %rsi
	leaq	_ZSt4cout(%rip), %rdi
	movl	$3, %edx
.LEHB5:
	call	_ZSt16__ostream_insertIcSt11char_traitsIcEERSt13basic_ostreamIT_T0_ES6_PKS3_l@PLT
.LVL45:
.LBE538:
.LBE537:
.LBB539:
.LBB540:
	.loc 4 113 0
	leaq	_ZSt4cout(%rip), %rdi
	call	_ZSt4endlIcSt11char_traitsIcEERSt13basic_ostreamIT_T0_ES6_@PLT
.LVL46:
.LEHE5:
	jmp	.L10
.LVL47:
.L30:

/* --- trampoline on edge start --- */ 
pushq %rax 
movq $2607839178, %rax 
movq %rax, edgeId(%rip) 
popq %rax 
call _storeEdge 

/* --- trampoline on edge end --- */ 

.LBE540:
.LBE539:
.LBB541:
.LBB504:
	.loc 3 36 0

/* --- trampoline on after_cmp start --- */ 

movq %rdx, tmpquadone(%rip) 
movq %rcx, tmpquadtwo(%rip) 
leaq funcinptr(%rip), %rdx 
movq $17, (%rdx)
movq $'l', 8(%rdx)
movq $65535, %rcx 
movq %rcx, 16(%rdx)
movq $0, 24(%rdx)
movq 20(%rsp), %rcx 
movq %rcx, 32(%rdx)
movq $0, 40(%rdx)
push (%rdx) 
movq tmpquadone(%rip), %rdx 
movq tmpquadtwo(%rip), %rcx 
movq $1, cmpPassed(%rip) 
call _storeDataFn 

/* --- trampoline on after_cmp end - */ 

	cmpl	$65535, 20(%rsp)
	jne	.L11

/* --- trampoline on edge start --- */ 
pushq %rax 
movq $1161224431, %rax 
movq %rax, edgeId(%rip) 
popq %rax 
call _storeEdge 

/* --- trampoline on edge end --- */ 

.LVL48:
.LBB505:
	.loc 3 38 0
	movb	$0, 0
	ud2
.LVL49:
.L31:

/* --- trampoline on edge start --- */ 
pushq %rax 
movq $2391436737, %rax 
movq %rax, edgeId(%rip) 
popq %rax 
call _storeEdge 

/* --- trampoline on edge end --- */ 

.LBE505:
.LBE504:
.LBE541:
.LBB542:
.LBB517:
.LBB515:
.LBB511:
	leaq	15(%rsp), %rsi
.LVL50:
	call	_ZNSs4_Rep10_M_disposeERKSaIcE.part.1
.LVL51:
	jmp	.L12
.LVL52:
.L32:

/* --- trampoline on edge start --- */ 
pushq %rax 
movq $954874409, %rax 
movq %rax, edgeId(%rip) 
popq %rax 
call _storeEdge 

/* --- trampoline on edge end --- */ 

.LBE511:
.LBE515:
.LBE517:
.LBE542:
.LBB543:
.LBB527:
.LBB526:
.LBB525:
	leaq	15(%rsp), %rsi
.LVL53:
	call	_ZNSs4_Rep10_M_disposeERKSaIcE.part.1
.LVL54:
	jmp	.L13
.LVL55:
.L33:

/* --- trampoline on edge start --- */ 
pushq %rax 
movq $871002580, %rax 
movq %rax, edgeId(%rip) 
popq %rax 
call _storeEdge 

/* --- trampoline on edge end --- */ 

.LBE525:
.LBE526:
.LBE527:
.LBE543:
.LBB544:
.LBB536:
.LBB535:
.LBB534:
	leaq	15(%rsp), %rsi
.LVL56:
	call	_ZNSs4_Rep10_M_disposeERKSaIcE.part.1
.LVL57:
	jmp	.L14
.LVL58:
.L34:

/* --- trampoline on edge start --- */ 
pushq %rax 
movq $533620692, %rax 
movq %rax, edgeId(%rip) 
popq %rax 
call _storeEdge 

/* --- trampoline on edge end --- */ 

.LBE534:
.LBE535:
.LBE536:
.LBE544:
	.loc 3 41 0
	call	__stack_chk_fail@PLT
.LVL59:
.L23:

/* --- trampoline on edge start --- */ 
pushq %rax 
movq $2719993447, %rax 
movq %rax, edgeId(%rip) 
popq %rax 
call _storeEdge 

/* --- trampoline on edge end --- */ 

	leaq	_ZNSs4_Rep20_S_empty_rep_storageE(%rip), %r13
.LVL60:
	movq	%rax, %r12
.LVL61:
.L20:

/* --- trampoline on edge start --- */ 
pushq %rax 
movq $487652979, %rax 
movq %rax, edgeId(%rip) 
popq %rax 
call _storeEdge 

/* --- trampoline on edge end --- */ 

.LBB545:
.LBB546:
.LBB547:
.LBB548:
	.loc 1 3312 0
	movq	24(%rsp), %r8
	leaq	-24(%r8), %rdi
.LVL62:
.LBE548:
.LBE547:
.LBB549:
.LBB550:
	.loc 1 3243 0

/* --- trampoline on after_cmp start --- */ 

movq %rdx, tmpquadone(%rip) 
movq %rcx, tmpquadtwo(%rip) 
leaq funcinptr(%rip), %rdx 
movq $18, (%rdx)
movq $'q', 8(%rdx)
movq %r13, %rcx 
movq %rcx, 16(%rdx)
movq $0, 24(%rdx)
movq %rdi, %rcx 
movq %rcx, 32(%rdx)
movq $0, 40(%rdx)
push (%rdx) 
movq tmpquadone(%rip), %rdx 
movq tmpquadtwo(%rip), %rcx 
movq $1, cmpPassed(%rip) 
call _storeDataFn 

/* --- trampoline on after_cmp end - */ 

	cmpq	%r13, %rdi
	je	.L21

/* --- trampoline on edge start --- */ 
pushq %rax 
movq $2945202721, %rax 
movq %rax, edgeId(%rip) 
popq %rax 
call _storeEdge 

/* --- trampoline on edge end --- */ 

	leaq	15(%rsp), %rsi
.LVL63:
	call	_ZNSs4_Rep10_M_disposeERKSaIcE.part.1
.LVL64:
.L21:

/* --- trampoline on edge start --- */ 
pushq %rax 
movq $3715916241, %rax 
movq %rax, edgeId(%rip) 
popq %rax 
call _storeEdge 

/* --- trampoline on edge end --- */ 

.LBE550:
.LBE549:
.LBE546:
.LBE545:
	.loc 3 14 0
	movq	%rbp, %rdi
	call	_ZNSt14basic_ifstreamIcSt11char_traitsIcEED1Ev@PLT
.LVL65:
	movq	%r12, %rdi
.LEHB6:
	call	_Unwind_Resume@PLT
.LVL66:
.LEHE6:
.L26:

/* --- trampoline on edge start --- */ 
pushq %rax 
movq $2300016113, %rax 
movq %rax, edgeId(%rip) 
popq %rax 
call _storeEdge 

/* --- trampoline on edge end --- */ 

	.loc 3 31 0
	movq	%r13, %rdi
	movq	%rax, %r14
	call	_ZNSt19basic_istringstreamIcSt11char_traitsIcESaIcEED1Ev@PLT
.LVL67:
.L16:

/* --- trampoline on edge start --- */ 
pushq %rax 
movq $2720292311, %rax 
movq %rax, edgeId(%rip) 
popq %rax 
call _storeEdge 

/* --- trampoline on edge end --- */ 

	.loc 3 30 0
	movq	%r12, %rdi
	movq	%r14, %r12
	call	_ZNSt19basic_istringstreamIcSt11char_traitsIcESaIcEED1Ev@PLT
.LVL68:
.L17:

/* --- trampoline on edge start --- */ 
pushq %rax 
movq $445157751, %rax 
movq %rax, edgeId(%rip) 
popq %rax 
call _storeEdge 

/* --- trampoline on edge end --- */ 

.LBB551:
.LBB552:
.LBB553:
.LBB554:
	.loc 1 3312 0
	movq	40(%rsp), %rsi
.LBE554:
.LBE553:
.LBB556:
.LBB557:
	.loc 1 3243 0
	leaq	_ZNSs4_Rep20_S_empty_rep_storageE(%rip), %r13
.LBE557:
.LBE556:
.LBB559:
.LBB555:
	.loc 1 3312 0
	leaq	-24(%rsi), %rdi
.LVL69:
.LBE555:
.LBE559:
.LBB560:
.LBB558:
	.loc 1 3243 0

/* --- trampoline on after_cmp start --- */ 

movq %rdx, tmpquadone(%rip) 
movq %rcx, tmpquadtwo(%rip) 
leaq funcinptr(%rip), %rdx 
movq $19, (%rdx)
movq $'q', 8(%rdx)
movq %r13, %rcx 
movq %rcx, 16(%rdx)
movq $0, 24(%rdx)
movq %rdi, %rcx 
movq %rcx, 32(%rdx)
movq $0, 40(%rdx)
push (%rdx) 
movq tmpquadone(%rip), %rdx 
movq tmpquadtwo(%rip), %rcx 
movq $1, cmpPassed(%rip) 
call _storeDataFn 

/* --- trampoline on after_cmp end - */ 

	cmpq	%r13, %rdi
	je	.L18

/* --- trampoline on edge start --- */ 
pushq %rax 
movq $1352286150, %rax 
movq %rax, edgeId(%rip) 
popq %rax 
call _storeEdge 

/* --- trampoline on edge end --- */ 

	leaq	15(%rsp), %rsi
.LVL70:
	call	_ZNSs4_Rep10_M_disposeERKSaIcE.part.1
.LVL71:
.L18:

/* --- trampoline on edge start --- */ 
pushq %rax 
movq $2592395774, %rax 
movq %rax, edgeId(%rip) 
popq %rax 
call _storeEdge 

/* --- trampoline on edge end --- */ 

.LBE558:
.LBE560:
.LBE552:
.LBE551:
.LBB561:
.LBB562:
.LBB563:
.LBB564:
	.loc 1 3312 0
	movq	32(%rsp), %rdi
	leaq	-24(%rdi), %rdi
.LVL72:
.LBE564:
.LBE563:
.LBB565:
.LBB566:
	.loc 1 3243 0

/* --- trampoline on after_cmp start --- */ 

movq %rdx, tmpquadone(%rip) 
movq %rcx, tmpquadtwo(%rip) 
leaq funcinptr(%rip), %rdx 
movq $20, (%rdx)
movq $'q', 8(%rdx)
movq %r13, %rcx 
movq %rcx, 16(%rdx)
movq $0, 24(%rdx)
movq %rdi, %rcx 
movq %rcx, 32(%rdx)
movq $0, 40(%rdx)
push (%rdx) 
movq tmpquadone(%rip), %rdx 
movq tmpquadtwo(%rip), %rcx 
movq $1, cmpPassed(%rip) 
call _storeDataFn 

/* --- trampoline on after_cmp end - */ 

	cmpq	%r13, %rdi
	je	.L19

/* --- trampoline on edge start --- */ 
pushq %rax 
movq $4290917200, %rax 
movq %rax, edgeId(%rip) 
popq %rax 
call _storeEdge 

/* --- trampoline on edge end --- */ 

	leaq	15(%rsp), %rsi
.LVL73:
	call	_ZNSs4_Rep10_M_disposeERKSaIcE.part.1
.LVL74:
.L19:

/* --- trampoline on edge start --- */ 
pushq %rax 
movq $2147357082, %rax 
movq %rax, edgeId(%rip) 
popq %rax 
call _storeEdge 

/* --- trampoline on edge end --- */ 

.LBE566:
.LBE565:
.LBE562:
.LBE561:
	.loc 3 23 0
	movq	%rbx, %rdi
	call	_ZNSt19basic_istringstreamIcSt11char_traitsIcESaIcEED1Ev@PLT
.LVL75:
	jmp	.L20
.LVL76:
.L25:

/* --- trampoline on edge start --- */ 
pushq %rax 
movq $3310354370, %rax 
movq %rax, edgeId(%rip) 
popq %rax 
call _storeEdge 

/* --- trampoline on edge end --- */ 

	movq	%rax, %r14
.LVL77:
	jmp	.L16
.L24:

/* --- trampoline on edge start --- */ 
pushq %rax 
movq $2622816252, %rax 
movq %rax, edgeId(%rip) 
popq %rax 
call _storeEdge 

/* --- trampoline on edge end --- */ 

	movq	%rax, %r12
	jmp	.L17
	.cfi_endproc
.LFE1766:
	.globl	__gxx_personality_v0
	.section	.gcc_except_table,"a",@progbits
.LLSDA1766:
	.byte	0xff
	.byte	0xff
	.byte	0x1
	.uleb128 .LLSDACSE1766-.LLSDACSB1766
.LLSDACSB1766:
	.uleb128 .LEHB0-.LFB1766
	.uleb128 .LEHE0-.LEHB0
	.uleb128 0
	.uleb128 0
	.uleb128 .LEHB1-.LFB1766
	.uleb128 .LEHE1-.LEHB1
	.uleb128 .L23-.LFB1766
	.uleb128 0
	.uleb128 .LEHB2-.LFB1766
	.uleb128 .LEHE2-.LEHB2
	.uleb128 .L24-.LFB1766
	.uleb128 0
	.uleb128 .LEHB3-.LFB1766
	.uleb128 .LEHE3-.LEHB3
	.uleb128 .L25-.LFB1766
	.uleb128 0
	.uleb128 .LEHB4-.LFB1766
	.uleb128 .LEHE4-.LEHB4
	.uleb128 .L26-.LFB1766
	.uleb128 0
	.uleb128 .LEHB5-.LFB1766
	.uleb128 .LEHE5-.LEHB5
	.uleb128 .L23-.LFB1766
	.uleb128 0
	.uleb128 .LEHB6-.LFB1766
	.uleb128 .LEHE6-.LEHB6
	.uleb128 0
	.uleb128 0
.LLSDACSE1766:
	.section	.text.startup
	.size	main, .-main
	.p2align 4,,15
	.type	_GLOBAL__sub_I_main, @function
_GLOBAL__sub_I_main:
.LFB2259:
	.loc 3 41 0
	.cfi_startproc
.LVL78:
.LBB567:
.LBB568:
	.file 5 "/usr/include/c++/7/iostream"
	.loc 5 74 0
	leaq	_ZStL8__ioinit(%rip), %rdi
.LBE568:
.LBE567:
	.loc 3 41 0
	subq	$8, %rsp
	.cfi_def_cfa_offset 16
.LBB571:
.LBB569:
	.loc 5 74 0
	call	_ZNSt8ios_base4InitC1Ev@PLT
.LVL79:
	movq	_ZNSt8ios_base4InitD1Ev@GOTPCREL(%rip), %rdi
	leaq	__dso_handle(%rip), %rdx
	leaq	_ZStL8__ioinit(%rip), %rsi
.LBE569:
.LBE571:
	.loc 3 41 0
	addq	$8, %rsp
	.cfi_def_cfa_offset 8
.LBB572:
.LBB570:
	.loc 5 74 0
	jmp	__cxa_atexit@PLT
.LVL80:
.LBE570:
.LBE572:
	.cfi_endproc
.LFE2259:
	.size	_GLOBAL__sub_I_main, .-_GLOBAL__sub_I_main
	.section	.init_array,"aw"
	.align 8
	.quad	_GLOBAL__sub_I_main
	.local	_ZStL8__ioinit
	.comm	_ZStL8__ioinit,1,1
	.weakref	_ZL28__gthrw___pthread_key_createPjPFvPvE,__pthread_key_create
	.text
.Letext0:
	.file 6 "<built-in>"
	.file 7 "/usr/lib/gcc/x86_64-linux-gnu/7/include/stddef.h"
	.file 8 "/usr/include/x86_64-linux-gnu/bits/types/wint_t.h"
	.file 9 "/usr/include/x86_64-linux-gnu/bits/types/__mbstate_t.h"
	.file 10 "/usr/include/x86_64-linux-gnu/bits/types/mbstate_t.h"
	.file 11 "/usr/include/x86_64-linux-gnu/bits/types/__FILE.h"
	.file 12 "/usr/include/x86_64-linux-gnu/bits/libio.h"
	.file 13 "/usr/include/x86_64-linux-gnu/bits/types/FILE.h"
	.file 14 "/usr/include/c++/7/cwchar"
	.file 15 "/usr/include/c++/7/new"
	.file 16 "/usr/include/c++/7/bits/exception_ptr.h"
	.file 17 "/usr/include/x86_64-linux-gnu/c++/7/bits/c++config.h"
	.file 18 "/usr/include/c++/7/type_traits"
	.file 19 "/usr/include/c++/7/bits/stl_pair.h"
	.file 20 "/usr/include/c++/7/debug/debug.h"
	.file 21 "/usr/include/c++/7/bits/char_traits.h"
	.file 22 "/usr/include/c++/7/cstdint"
	.file 23 "/usr/include/c++/7/clocale"
	.file 24 "/usr/include/c++/7/bits/allocator.h"
	.file 25 "/usr/include/c++/7/cstdlib"
	.file 26 "/usr/include/c++/7/cstdio"
	.file 27 "/usr/include/c++/7/bits/basic_string.tcc"
	.file 28 "/usr/include/c++/7/initializer_list"
	.file 29 "/usr/include/c++/7/bits/stringfwd.h"
	.file 30 "/usr/include/c++/7/system_error"
	.file 31 "/usr/include/c++/7/bits/ios_base.h"
	.file 32 "/usr/include/c++/7/cwctype"
	.file 33 "/usr/include/c++/7/istream"
	.file 34 "/usr/include/c++/7/bits/ostream.tcc"
	.file 35 "/usr/include/c++/7/streambuf"
	.file 36 "/usr/include/c++/7/bits/locale_facets.h"
	.file 37 "/usr/include/c++/7/iosfwd"
	.file 38 "/usr/include/c++/7/bits/postypes.h"
	.file 39 "/usr/include/c++/7/sstream"
	.file 40 "/usr/include/c++/7/bits/stl_iterator_base_types.h"
	.file 41 "/usr/include/c++/7/bits/basic_ios.h"
	.file 42 "/usr/include/c++/7/fstream"
	.file 43 "/usr/include/c++/7/bits/ostream_insert.h"
	.file 44 "/usr/include/wchar.h"
	.file 45 "/usr/include/x86_64-linux-gnu/bits/wchar2.h"
	.file 46 "/usr/include/x86_64-linux-gnu/bits/types/struct_tm.h"
	.file 47 "/usr/include/c++/7/bits/predefined_ops.h"
	.file 48 "/usr/include/c++/7/ext/new_allocator.h"
	.file 49 "/usr/include/c++/7/ext/numeric_traits.h"
	.file 50 "/usr/include/c++/7/bits/stl_iterator.h"
	.file 51 "/usr/include/x86_64-linux-gnu/bits/types.h"
	.file 52 "/usr/include/x86_64-linux-gnu/bits/stdint-intn.h"
	.file 53 "/usr/include/x86_64-linux-gnu/bits/stdint-uintn.h"
	.file 54 "/usr/include/stdint.h"
	.file 55 "/usr/include/locale.h"
	.file 56 "/usr/include/time.h"
	.file 57 "/usr/include/x86_64-linux-gnu/c++/7/bits/atomic_word.h"
	.file 58 "/usr/include/stdlib.h"
	.file 59 "/usr/include/x86_64-linux-gnu/bits/stdlib-float.h"
	.file 60 "/usr/include/x86_64-linux-gnu/bits/stdlib-bsearch.h"
	.file 61 "/usr/include/x86_64-linux-gnu/bits/stdlib.h"
	.file 62 "/usr/include/x86_64-linux-gnu/bits/_G_config.h"
	.file 63 "/usr/include/stdio.h"
	.file 64 "/usr/include/x86_64-linux-gnu/bits/sys_errlist.h"
	.file 65 "/usr/include/x86_64-linux-gnu/bits/stdio2.h"
	.file 66 "/usr/include/x86_64-linux-gnu/bits/stdio.h"
	.file 67 "/usr/include/errno.h"
	.file 68 "/usr/include/x86_64-linux-gnu/bits/wctype-wchar.h"
	.file 69 "/usr/include/wctype.h"
	.file 70 "test2.h"
	.file 71 "/usr/include/x86_64-linux-gnu/c++/7/bits/gthr-default.h"
	.section	.data.rel.local.DW.ref.__gxx_personality_v0,"awG",@progbits,DW.ref.__gxx_personality_v0,comdat
	.align 8
	.type	DW.ref.__gxx_personality_v0, @object
	.size	DW.ref.__gxx_personality_v0, 8
DW.ref.__gxx_personality_v0:
	.quad	__gxx_personality_v0
	.hidden	__dso_handle
	.ident	"GCC: (Ubuntu 7.5.0-3ubuntu1~18.04) 7.5.0"
	.section	.note.GNU-stack,"",@progbits

/* --- trampoline on edge start --- */ 


.align 8 

.section .text.startup 
_storeEdge:
  pushq %rax 
  pushq %rbx 
  pushq %rcx 
  pushq %rdx 
  cmpq $1, cmpPassed(%rip)  
  jne _caledgehash     
  movq $0, cmpPassed(%rip)  
  movq edgeCnt(%rip), %rax 
  shl $3, %rax 
  cmpq shmSize2(%rip), %rax 
  ja _shm2Full             
  movq edgehash(%rip), %rbx 
  movq shmptr_edge(%rip), %rdx 
  leaq 0(%rax, %rdx,1), %rcx 
  movq %rbx, (%rcx) 
  addq $1, edgeCnt(%rip) 
_caledgehash: 
  movq edgehash(%rip), %rdx 
  movq %rdx, %rax 
  salq $5, %rax 
  addq %rax, %rdx 
  movq edgeId(%rip), %rax 
  addq %rdx, %rax 
  movq %rax, edgehash(%rip) 
  movq $0xFFFFFFFF, %rax 
  andq %rax, edgehash(%rip) 
  popq %rdx 
  popq %rcx 
  popq %rbx 
  popq %rax 
  ret 
_shm2Full:                
  movq $15, %rax 
  popq %rdx 
  popq %rcx 
  popq %rbx 
  popq %rax 
call _exit@PLT

/* --- trampoline on storeDataFn start --- */ 

.align 8 

.section .text.startup
.extern printf
.extern exit
_storeDataFn: 
  push %rbp 
  movq %rsp, %rbp 
  push %rax 
  push %rbx 
  push %r8 
  push %r9 
  push %r10 
  movq shmptr_gcnt(%rip), %rax 
  movq (%rax), %rax 
  shl $3, %rax 
  addq $48, %rax 
  cmpq shmSize(%rip), %rax
  jae _shmFull
  cmpq $0, shmptr_cmp(%rip)
  je _shmUninitialize
  movq $0, %rbx 
  subq $48, %rax 
  shr $3, %rax 
_storeloop: 
  movq %rax, %r10 
  shl $3, %r10    
  addq shmptr_cmp(%rip), %r10 
  movq %rbx, %r9 
  shl $3, %r9 
  lea funcinptr(%rip), %r8 
  addq  %r8, %r9 
  movq (%r9), %r8 
  movq %r8, (%r10) 
  cmpq $0, %rbx 
  jnz  _no_get_cmpid 
  movq %r8, cmpid(%rip) 
_no_get_cmpid: 
  inc %rax 
  inc %rbx 
  cmpq $6, %rbx 
  jne _storeloop 
  movq shmptr_gcnt(%rip), %rbx 
  movq %rax, (%rbx) 
  movq cmpid(%rip), %rax 
  shl $4, %rax 
  movq %rax, %rbx 
  addq $8,   %rbx
  cmpq $1400000 ,%rbx
  jae _cmpdictFull 
  leaq cmpid_dict(%rip), %rbx
  addq %rbx, %rax 
  cmpq $0, (%rax) 
  jz   _insert_entry 
  movq $0, %r8 
_remove_repeated_cycle: 
  movq %r8, %r9 
  movq %r9, %r10
  shl $2, %r9 
  add %r10, %r9 
  add %r10, %r9 
  movq shmptr_gcnt(%rip), %r10 
  movq (%r10), %r10
  subq (%rax), %r10 
  cmpq (%rax), %r10
  ja  _no_remove_cycle
  cmpq %r9, %r10  
  jbe _remove_cycle   
  movq %r8, %r9
  addq $1, %r9 
  movq %r9, %r10
  shl $2, %r9 
  add %r10, %r9 
  add %r10, %r9 
  movq shmptr_gcnt(%rip), %r10 
  movq (%r10), %r10
  subq %r9, %r10 
  shl $3, %r10 
  movq shmptr_cmp(%rip) , %r9 
  addq %r10, %r9
  movq (%r9), %rbx 
  movq %r8, %r9
  addq $1, %r9 
  movq %r9, %r10
  shl $2, %r9 
  add %r10, %r9 
  add %r10, %r9 
  movq (%rax), %r10 
  subq %r9, %r10 
  shl $3, %r10 
  movq shmptr_cmp(%rip) , %r9 
  addq %r10, %r9
  cmpq (%r9), %rbx 
  jnz _no_remove_cycle 
  inc %r8 
  jmp _remove_repeated_cycle 
_remove_cycle: 
  movq %rdx, tmpquadone(%rip) 
  movq (%rax), %rdx 
  movq shmptr_gcnt(%rip), %rax 
  movq %rdx, (%rax) 
  movl %edx, %eax 
  shr  $32, %rdx 
  movq  $6, %r8  
  div  %r8 
  movl %eax, edgeCnt(%rip) 
  movq tmpquadone(%rip), %rdx 
  jmp _skipstoredata 
_no_remove_cycle: 
 movq shmptr_gcnt(%rip), %rbx 
 movq (%rbx), %rbx 
 movq %rbx, (%rax) 
 jmp _skipstoredata 
_insert_entry:
  movq shmptr_gcnt(%rip), %rbx 
  movq (%rbx), %rbx 
  movq %rbx, (%rax)
_skipstoredata: 
  pop %r10 
  pop %r9 
  pop %r8 
  pop %rbx 
  pop %rax 
  movq %rbp, %rsp     
  pop %rbp
  ret $8
_shmFull: 
  movq $15, %rax 
call _exit@PLT
_cmpdictFull: 
  movq $14, %rax 
call _exit@PLT
_shmUninitialize: 
  movq %rbp, %rsp     
  pop %rbp
  xorq %rax, %rax
  ret $8
/* --- trampoline on storeDataFn end --- */ 


/* --- Server Initialization (64-BIT) --- */

.code64
.align 8

  lahf
  seto  %al
.section .text.startup
.align 8
__afl_setup_first:

  /* Save everything that is not yet saved and that may be touched by
     getenv() and several other libcalls we'll be relying on. */

  leaq -360(%rsp), %rsp

  movq %rax,   0(%rsp)
  movq %rcx,   8(%rsp)
  movq %rdi,  16(%rsp)
  movq %rsi,  32(%rsp)
  movq %r8,   40(%rsp)
  movq %r9,   48(%rsp)
  movq %r10,  56(%rsp)
  movq %r11,  64(%rsp)

  movq %xmm0,  96(%rsp)
  movq %xmm1,  112(%rsp)
  movq %xmm2,  128(%rsp)
  movq %xmm3,  144(%rsp)
  movq %xmm4,  160(%rsp)
  movq %xmm5,  176(%rsp)
  movq %xmm6,  192(%rsp)
  movq %xmm7,  208(%rsp)
  movq %xmm8,  224(%rsp)
  movq %xmm9,  240(%rsp)
  movq %xmm10, 256(%rsp)
  movq %xmm11, 272(%rsp)
  movq %xmm12, 288(%rsp)
  movq %xmm13, 304(%rsp)
  movq %xmm14, 320(%rsp)
  movq %xmm15, 336(%rsp)
  movq %rdx,   352(%rsp)

  /* Map SHM, jumping to __afl_setup_abort if something goes wrong. */

  /* The 64-bit ABI requires 16-byte stack alignment. We'll keep the
     original stack ptr in the callee-saved r12. */

  pushq %r12
  movq  %rsp, %r12
  subq  $16, %rsp
  andq  $0xfffffffffffffff0, %rsp
  movq $1048576, shmSize(%rip)
  movq $1048576, shmSize2(%rip)

 /* map shared memory to store gCnt variable. */

  leaq .SHM_ENV_GCNT(%rip), %rdi
call getenv@PLT

  testq %rax, %rax
  je    __afl_setup_abort

  movq  %rax, %rdi
call atoi@PLT

  xorq %rdx, %rdx   /* shmat flags    */
  xorq %rsi, %rsi   /* requested addr */
  movq %rax, %rdi   /* SHM ID         */
call shmat@PLT

  cmpq $-1, %rax
  je   __afl_setup_abort

  /* Store the address of the SHM region. */

  movq %rax, shmptr_gcnt(%rip)

  leaq .SHM_ENV_CMP(%rip), %rdi
call getenv@PLT

  testq %rax, %rax
  je    __afl_setup_abort

  movq  %rax, %rdi
call atoi@PLT

  xorq %rdx, %rdx   /* shmat flags    */
  xorq %rsi, %rsi   /* requested addr */
  movq %rax, %rdi   /* SHM ID         */
call shmat@PLT

  cmpq $-1, %rax
  je   __afl_setup_abort

  /* Store the address of the SHM region. */

  movq %rax, shmptr_cmp(%rip)

  leaq .SHM_ENV_EDGE(%rip), %rdi
call getenv@PLT

  testq %rax, %rax
  je    __afl_setup_abort

  movq  %rax, %rdi
call atoi@PLT

  xorq %rdx, %rdx   /* shmat flags    */
  xorq %rsi, %rsi   /* requested addr */
  movq %rax, %rdi   /* SHM ID         */
call shmat@PLT

  cmpq $-1, %rax
  je   __afl_setup_abort

  /* Store the address of the SHM region. */

  movq %rax, shmptr_edge(%rip)
__afl_forkserver:

  /* Enter the fork server mode to avoid the overhead of execve() calls. We
     push rdx (area ptr) twice to keep stack alignment neat. */
  /* Phone home and tell the parent that we're OK. (Note that signals with
     no SA_RESTART will mess it up). If this fails, assume that the fd is
     closed because we were execve()d from an instrumented binary, or because
     the parent doesn't want to use the fork server. */

  movq $4, %rdx               /* length    */
  leaq __afl_temp(%rip), %rsi /* data      */
  movq $(196 + 1), %rdi       /* file desc */
call write@PLT

  cmpq $4, %rax
  jne  __afl_fork_resume

__afl_fork_wait_loop:

  /* Wait for parent by reading from the pipe. Abort if read fails. */

  movq $4, %rdx               /* length    */
  leaq __afl_temp(%rip), %rsi /* data      */
  movq $196, %rdi             /* file desc */
call read@PLT
  cmpq $4, %rax
  jne  __afl_die

  /* Once woken up, create a clone of our process. This is an excellent use
     case for syscall(__NR_clone, 0, CLONE_PARENT), but glibc boneheadedly
     caches getpid() results and offers no way to update the value, breaking
     abort(), raise(), and a bunch of other things :-( */

call fork@PLT
  cmpq $0, %rax
  jl   __afl_die
  je   __afl_fork_resume

  /* In parent process: write PID to pipe, then wait for child. */

  movl %eax, __afl_fork_pid(%rip)

  movq $4, %rdx                   /* length    */
  leaq __afl_fork_pid(%rip), %rsi /* data      */
  movq $(196 + 1), %rdi             /* file desc */
call write@PLT

  movq $0, %rdx                   /* no flags  */
  leaq __afl_temp(%rip), %rsi     /* status    */
  movq __afl_fork_pid(%rip), %rdi /* PID       */
call waitpid@PLT
  cmpq $0, %rax
  jle  __afl_die

  /* Relay wait status to pipe, then loop back. */

  movq $4, %rdx               /* length    */
  leaq __afl_temp(%rip), %rsi /* data      */
  movq $(196 + 1), %rdi         /* file desc */
call write@PLT

  jmp  __afl_fork_wait_loop


__afl_die:

  leaq .serverDied(%rip), %rdi 
  xorq %rax, %rax 
call printf@PLT
  xorq %rax, %rax
call _exit@PLT

__afl_setup_abort:

  movq %r12, %rsp
  popq %r12

  movq  0(%rsp), %rax
  movq  8(%rsp), %rcx
  movq 16(%rsp), %rdi
  movq 32(%rsp), %rsi
  movq 40(%rsp), %r8
  movq 48(%rsp), %r9
  movq 56(%rsp), %r10
  movq 64(%rsp), %r11

  movq  96(%rsp), %xmm0
  movq 112(%rsp), %xmm1
  movq 128(%rsp), %xmm2
  movq 144(%rsp), %xmm3
  movq 160(%rsp), %xmm4
  movq 176(%rsp), %xmm5
  movq 192(%rsp), %xmm6
  movq 208(%rsp), %xmm7
  movq 224(%rsp), %xmm8
  movq 240(%rsp), %xmm9
  movq 256(%rsp), %xmm10
  movq 272(%rsp), %xmm11
  movq 288(%rsp), %xmm12
  movq 304(%rsp), %xmm13
  movq 320(%rsp), %xmm14
  movq 336(%rsp), %xmm15

  movq 352(%rsp), %rdx
  leaq 360(%rsp), %rsp
  movb $127, %al 
  ret
__afl_fork_resume:

  /* In child process: close fds, resume execution. */

  movq $196, %rdi
call close@PLT

  movq $(196 + 1), %rdi
call close@PLT

 /*  Continue execution */

  movq %r12, %rsp
  popq %r12

  movq  0(%rsp), %rax
  movq  8(%rsp), %rcx
  movq 16(%rsp), %rdi
  movq 32(%rsp), %rsi
  movq 40(%rsp), %r8
  movq 48(%rsp), %r9
  movq 56(%rsp), %r10
  movq 64(%rsp), %r11

  movq  96(%rsp), %xmm0
  movq 112(%rsp), %xmm1
  movq 128(%rsp), %xmm2
  movq 144(%rsp), %xmm3
  movq 160(%rsp), %xmm4
  movq 176(%rsp), %xmm5
  movq 192(%rsp), %xmm6
  movq 208(%rsp), %xmm7
  movq 224(%rsp), %xmm8
  movq 240(%rsp), %xmm9
  movq 256(%rsp), %xmm10
  movq 272(%rsp), %xmm11
  movq 288(%rsp), %xmm12
  movq 304(%rsp), %xmm13
  movq 320(%rsp), %xmm14
  movq 336(%rsp), %xmm15
  movq 352(%rsp), %rdx
  leaq 360(%rsp), %rsp
  movb $0, %al 
  ret
  .comm   edgehash          8
  .comm   edgeId,           8
  .comm   shmSize,          4
  .comm   shmSize2,         4
  .comm   tmpquadone,       8
  .comm   tmpquadtwo,       8
  .comm   tmpquadrax,       8
  .comm   tmpquadrdi,       8
  .comm   tmpquadrsi,       8
  .comm   shmptr_cmp,      8
  .comm   shmptr_edge,     8
  .comm   shmptr_gcnt,     8
  .comm   cmpid,            8
  .comm   edgeCnt,       8
  .comm   cmpPassed,       8
  .comm   instswitch,      8
  .comm   funcinptr,       48
  .comm    cmpid_dict,     1400000
  .lcomm   __afl_fork_pid, 4
  .lcomm   __afl_temp,     4

.SHM_ENV_CMP:
  .asciz "SHM_ENV_CMP"
.SHM_ENV_EDGE: 
  .asciz "SHM_ENV_EDGE"
.SHM_ENV_GCNT:
  .asciz "SHM_ENV_GCNT"
.serverSetupError: 
  .asciz " Server Setup Error, continue runnig without server \n " 
.serverDied: 
  .asciz " Server is dead \n " 
.debug:  
  .asciz "debug message: \n " 

/* --- END --- */

