	.file	"test.c"
	.text
.Ltext0:
	.section	.rodata.str1.1,"aMS",@progbits,1
.LC0:
	.string	"r"
.LC1:
	.string	"test.data"
.LC2:
	.string	"yes!"
	.section	.text.startup,"ax",@progbits
	.p2align 4,,15
	.globl	main
	.type	main, @function
main:

/* --- trampoline on server start --- */ 
  movq %rax, tmpquadrax(%rip)
  movq %rdi, tmpquadrdi(%rip) 
  movq %rsi, tmpquadrsi(%rip) 
  call __afl_setup_first
  cmpb $127, %al 
  jne runSUT
  leaq .serverSetupError(%rip), %rdi 
  xorq %rax, %rax 
call printf@PLT
  movq $1048576,  %rdi 
  xorq %rax, %rax 
call malloc@PLT
  movq %rax, shmptr_edge(%rip)  
  movq $1048576,  %rdi 
  xorq %rax, %rax 
call malloc@PLT
  movq %rax, shmptr_cmp(%rip)  
  movq $8,  %rdi 
  xorq %rax, %rax 
call malloc@PLT
  movq %rax, shmptr_gcnt(%rip)  
runSUT:
  movq tmpquadrax(%rip), %rax
  movq tmpquadrsi(%rip), %rsi
  movq tmpquadrdi(%rip), %rdi

/* --- trampoline on server end --- */ 
.LFB23:
	.file 1 "test.c"
	.loc 1 3 0
	.cfi_startproc
	pushq	%r12
	.cfi_def_cfa_offset 16
	.cfi_offset 12, -16
	pushq	%rbp
	.cfi_def_cfa_offset 24
	.cfi_offset 6, -24
	.loc 1 5 0
	leaq	.LC0(%rip), %rsi
	.loc 1 3 0
	pushq	%rbx
	.cfi_def_cfa_offset 32
	.cfi_offset 3, -32
	.loc 1 5 0
	leaq	.LC1(%rip), %rdi
.LBB6:
.LBB7:
	.file 2 "/usr/include/x86_64-linux-gnu/bits/stdio2.h"
	.loc 2 104 0
	leaq	.LC2(%rip), %r12
.LBE7:
.LBE6:
	.loc 1 3 0
	subq	$80, %rsp
	.cfi_def_cfa_offset 112
	.loc 1 3 0
	movq	%fs:40, %rax
	movq	%rax, 72(%rsp)
	xorl	%eax, %eax
	movq	%rsp, %rbx
	.loc 1 5 0
	call	fopen@PLT
.LVL0:
	movq	%rax, %rbp
.LVL1:
	.p2align 4,,10
	.p2align 3
.L2:

/* --- trampoline on edge start --- */ 
pushq %rax 
movq $3525983024, %rax 
movq %rax, edgeId(%rip) 
popq %rax 
call _storeEdge 

/* --- trampoline on edge end --- */ 

.LBB9:
.LBB10:
	.loc 2 262 0
	movq	%rbp, %rdx
	movl	$64, %esi
	movq	%rbx, %rdi
	call	fgets@PLT
.LVL2:
.LBE10:
.LBE9:
	.loc 1 8 0
	testq	%rax, %rax
	je	.L8

/* --- trampoline on edge start --- */ 
pushq %rax 
movq $3449196881, %rax 
movq %rax, edgeId(%rip) 
popq %rax 
call _storeEdge 

/* --- trampoline on edge end --- */ 

	.loc 1 10 0

/* --- trampoline on after_cmp start --- */ 

movq %rdx, tmpquadone(%rip) 
movq %rcx, tmpquadtwo(%rip) 
leaq funcinptr(%rip), %rdx 
movq $3, (%rdx)
movq $'b', 8(%rdx)
movq $97, %rcx 
movq %rcx, 16(%rdx)
movq $0, 24(%rdx)
movq 1(%rsp), %rcx 
movq %rcx, 32(%rdx)
movq $0, 40(%rdx)
push (%rdx) 
movq tmpquadone(%rip), %rdx 
movq tmpquadtwo(%rip), %rcx 
movq $1, cmpPassed(%rip) 
call _storeDataFn 

/* --- trampoline on after_cmp end - */ 

	cmpb	$97, 1(%rsp)
	jne	.L2

/* --- trampoline on edge start --- */ 
pushq %rax 
movq $2578633258, %rax 
movq %rax, edgeId(%rip) 
popq %rax 
call _storeEdge 

/* --- trampoline on edge end --- */ 

	.loc 1 11 0

/* --- trampoline on after_cmp start --- */ 

movq %rdx, tmpquadone(%rip) 
movq %rcx, tmpquadtwo(%rip) 
leaq funcinptr(%rip), %rdx 
movq $4, (%rdx)
movq $'b', 8(%rdx)
movq $98, %rcx 
movq %rcx, 16(%rdx)
movq $0, 24(%rdx)
movq 2(%rsp), %rcx 
movq %rcx, 32(%rdx)
movq $0, 40(%rdx)
push (%rdx) 
movq tmpquadone(%rip), %rdx 
movq tmpquadtwo(%rip), %rcx 
movq $1, cmpPassed(%rip) 
call _storeDataFn 

/* --- trampoline on after_cmp end - */ 

	cmpb	$98, 2(%rsp)
	jne	.L2

/* --- trampoline on edge start --- */ 
pushq %rax 
movq $3543554629, %rax 
movq %rax, edgeId(%rip) 
popq %rax 
call _storeEdge 

/* --- trampoline on edge end --- */ 

	.loc 1 12 0

/* --- trampoline on after_cmp start --- */ 

movq %rdx, tmpquadone(%rip) 
movq %rcx, tmpquadtwo(%rip) 
leaq funcinptr(%rip), %rdx 
movq $5, (%rdx)
movq $'b', 8(%rdx)
movq $99, %rcx 
movq %rcx, 16(%rdx)
movq $0, 24(%rdx)
movq 3(%rsp), %rcx 
movq %rcx, 32(%rdx)
movq $0, 40(%rdx)
push (%rdx) 
movq tmpquadone(%rip), %rdx 
movq tmpquadtwo(%rip), %rcx 
movq $1, cmpPassed(%rip) 
call _storeDataFn 

/* --- trampoline on after_cmp end - */ 

	cmpb	$99, 3(%rsp)
	jne	.L2

/* --- trampoline on edge start --- */ 
pushq %rax 
movq $4201040712, %rax 
movq %rax, edgeId(%rip) 
popq %rax 
call _storeEdge 

/* --- trampoline on edge end --- */ 

.LVL3:
.LBB11:
.LBB8:
	.loc 2 104 0
	movq	%r12, %rdi
	call	puts@PLT
.LVL4:
	jmp	.L2
.LVL5:
	.p2align 4,,10
	.p2align 3
.L8:

/* --- trampoline on edge start --- */ 
pushq %rax 
movq $3911165548, %rax 
movq %rax, edgeId(%rip) 
popq %rax 
call _storeEdge 

/* --- trampoline on edge end --- */ 

.LBE8:
.LBE11:
	.loc 1 19 0
	movq	72(%rsp), %rcx
	xorq	%fs:40, %rcx
	jne	.L9

/* --- trampoline on edge start --- */ 
pushq %rax 
movq $3617881753, %rax 
movq %rax, edgeId(%rip) 
popq %rax 
call _storeEdge 

/* --- trampoline on edge end --- */ 

	addq	$80, %rsp
	.cfi_remember_state
	.cfi_def_cfa_offset 32
	popq	%rbx
	.cfi_def_cfa_offset 24
	popq	%rbp
	.cfi_def_cfa_offset 16
.LVL6:
	popq	%r12
	.cfi_def_cfa_offset 8
	ret
.LVL7:
.L9:

/* --- trampoline on edge start --- */ 
pushq %rax 
movq $1691270435, %rax 
movq %rax, edgeId(%rip) 
popq %rax 
call _storeEdge 

/* --- trampoline on edge end --- */ 

	.cfi_restore_state
	call	__stack_chk_fail@PLT
.LVL8:
	.cfi_endproc
.LFE23:
	.size	main, .-main
	.text
.Letext0:
	.file 3 "/usr/lib/gcc/x86_64-linux-gnu/7/include/stddef.h"
	.file 4 "/usr/include/x86_64-linux-gnu/bits/types.h"
	.file 5 "/usr/include/x86_64-linux-gnu/bits/libio.h"
	.file 6 "/usr/include/x86_64-linux-gnu/bits/types/FILE.h"
	.file 7 "/usr/include/stdio.h"
	.file 8 "/usr/include/x86_64-linux-gnu/bits/sys_errlist.h"
	.file 9 "<built-in>"
	.section	.note.GNU-stack,"",@progbits

/* --- trampoline on edge start --- */ 


.align 8 

.section .text.startup 
_storeEdge:
  pushq %rax 
  pushq %rbx 
  pushq %rcx 
  pushq %rdx 
  cmpq $1, cmpPassed(%rip)  
  jne _caledgehash     
  movq $0, cmpPassed(%rip)  
  movq edgeCnt(%rip), %rax 
  shl $3, %rax 
  cmpq shmSize2(%rip), %rax 
  ja _shm2Full             
  movq edgehash(%rip), %rbx 
  movq shmptr_edge(%rip), %rdx 
  leaq 0(%rax, %rdx,1), %rcx 
  movq %rbx, (%rcx) 
  addq $1, edgeCnt(%rip) 
_caledgehash: 
  movq edgehash(%rip), %rdx 
  movq %rdx, %rax 
  salq $5, %rax 
  addq %rax, %rdx 
  movq edgeId(%rip), %rax 
  addq %rdx, %rax 
  movq %rax, edgehash(%rip) 
  movq $0xFFFFFFFF, %rax 
  andq %rax, edgehash(%rip) 
  popq %rdx 
  popq %rcx 
  popq %rbx 
  popq %rax 
  ret 
_shm2Full:                
  movq $15, %rax 
  popq %rdx 
  popq %rcx 
  popq %rbx 
  popq %rax 
call _exit@PLT

/* --- trampoline on storeDataFn start --- */ 

.align 8 

.section .text.startup
.extern printf
.extern exit
_storeDataFn: 
  push %rbp 
  movq %rsp, %rbp 
  push %rax 
  push %rbx 
  push %r8 
  push %r9 
  push %r10 
  movq shmptr_gcnt(%rip), %rax 
  movq (%rax), %rax 
  shl $3, %rax 
  addq $48, %rax 
  cmpq shmSize(%rip), %rax
  jae _shmFull
  cmpq $0, shmptr_cmp(%rip)
  je _shmUninitialize
  movq $0, %rbx 
  subq $48, %rax 
  shr $3, %rax 
_storeloop: 
  movq %rax, %r10 
  shl $3, %r10    
  addq shmptr_cmp(%rip), %r10 
  movq %rbx, %r9 
  shl $3, %r9 
  lea funcinptr(%rip), %r8 
  addq  %r8, %r9 
  movq (%r9), %r8 
  movq %r8, (%r10) 
  cmpq $0, %rbx 
  jnz  _no_get_cmpid 
  movq %r8, cmpid(%rip) 
_no_get_cmpid: 
  inc %rax 
  inc %rbx 
  cmpq $6, %rbx 
  jne _storeloop 
  movq shmptr_gcnt(%rip), %rbx 
  movq %rax, (%rbx) 
  movq cmpid(%rip), %rax 
  shl $4, %rax 
  movq %rax, %rbx 
  addq $8,   %rbx
  cmpq $1400000 ,%rbx
  jae _cmpdictFull 
  leaq cmpid_dict(%rip), %rbx
  addq %rbx, %rax 
  cmpq $0, (%rax) 
  jz   _insert_entry 
  movq $0, %r8 
_remove_repeated_cycle: 
  movq %r8, %r9 
  movq %r9, %r10
  shl $2, %r9 
  add %r10, %r9 
  add %r10, %r9 
  movq shmptr_gcnt(%rip), %r10 
  movq (%r10), %r10
  subq (%rax), %r10 
  cmpq (%rax), %r10
  ja  _no_remove_cycle
  cmpq %r9, %r10  
  jbe _remove_cycle   
  movq %r8, %r9
  addq $1, %r9 
  movq %r9, %r10
  shl $2, %r9 
  add %r10, %r9 
  add %r10, %r9 
  movq shmptr_gcnt(%rip), %r10 
  movq (%r10), %r10
  subq %r9, %r10 
  shl $3, %r10 
  movq shmptr_cmp(%rip) , %r9 
  addq %r10, %r9
  movq (%r9), %rbx 
  movq %r8, %r9
  addq $1, %r9 
  movq %r9, %r10
  shl $2, %r9 
  add %r10, %r9 
  add %r10, %r9 
  movq (%rax), %r10 
  subq %r9, %r10 
  shl $3, %r10 
  movq shmptr_cmp(%rip) , %r9 
  addq %r10, %r9
  cmpq (%r9), %rbx 
  jnz _no_remove_cycle 
  inc %r8 
  jmp _remove_repeated_cycle 
_remove_cycle: 
  movq %rdx, tmpquadone(%rip) 
  movq (%rax), %rdx 
  movq shmptr_gcnt(%rip), %rax 
  movq %rdx, (%rax) 
  movl %edx, %eax 
  shr  $32, %rdx 
  movq  $6, %r8  
  div  %r8 
  movl %eax, edgeCnt(%rip) 
  movq tmpquadone(%rip), %rdx 
  jmp _skipstoredata 
_no_remove_cycle: 
 movq shmptr_gcnt(%rip), %rbx 
 movq (%rbx), %rbx 
 movq %rbx, (%rax) 
 jmp _skipstoredata 
_insert_entry:
  movq shmptr_gcnt(%rip), %rbx 
  movq (%rbx), %rbx 
  movq %rbx, (%rax)
_skipstoredata: 
  pop %r10 
  pop %r9 
  pop %r8 
  pop %rbx 
  pop %rax 
  movq %rbp, %rsp     
  pop %rbp
  ret $8
_shmFull: 
  movq $15, %rax 
call _exit@PLT
_cmpdictFull: 
  movq $14, %rax 
call _exit@PLT
_shmUninitialize: 
  movq %rbp, %rsp     
  pop %rbp
  xorq %rax, %rax
  ret $8
/* --- trampoline on storeDataFn end --- */ 


/* --- Server Initialization (64-BIT) --- */

.code64
.align 8

  lahf
  seto  %al
.section .text.startup
.align 8
__afl_setup_first:

  /* Save everything that is not yet saved and that may be touched by
     getenv() and several other libcalls we'll be relying on. */

  leaq -360(%rsp), %rsp

  movq %rax,   0(%rsp)
  movq %rcx,   8(%rsp)
  movq %rdi,  16(%rsp)
  movq %rsi,  32(%rsp)
  movq %r8,   40(%rsp)
  movq %r9,   48(%rsp)
  movq %r10,  56(%rsp)
  movq %r11,  64(%rsp)

  movq %xmm0,  96(%rsp)
  movq %xmm1,  112(%rsp)
  movq %xmm2,  128(%rsp)
  movq %xmm3,  144(%rsp)
  movq %xmm4,  160(%rsp)
  movq %xmm5,  176(%rsp)
  movq %xmm6,  192(%rsp)
  movq %xmm7,  208(%rsp)
  movq %xmm8,  224(%rsp)
  movq %xmm9,  240(%rsp)
  movq %xmm10, 256(%rsp)
  movq %xmm11, 272(%rsp)
  movq %xmm12, 288(%rsp)
  movq %xmm13, 304(%rsp)
  movq %xmm14, 320(%rsp)
  movq %xmm15, 336(%rsp)
  movq %rdx,   352(%rsp)

  /* Map SHM, jumping to __afl_setup_abort if something goes wrong. */

  /* The 64-bit ABI requires 16-byte stack alignment. We'll keep the
     original stack ptr in the callee-saved r12. */

  pushq %r12
  movq  %rsp, %r12
  subq  $16, %rsp
  andq  $0xfffffffffffffff0, %rsp

 /*The below code segment initialize edgehash, funcinptr, and cmpPassed memory*/
 /*to signature bits, for Intel Pin to find thier addresses */

 movq $0xdead1, edgehash(%rip) 
 movq $0xdead2, funcinptr(%rip) 
 movq $0xdead3, cmpPassed(%rip) 
  movq $1048576, shmSize(%rip)
  movq $1048576, shmSize2(%rip)

 /* map shared memory to store gCnt variable. */

  leaq .SHM_ENV_GCNT(%rip), %rdi
call getenv@PLT

  testq %rax, %rax
  je    __afl_setup_abort

  movq  %rax, %rdi
call atoi@PLT

  xorq %rdx, %rdx   /* shmat flags    */
  xorq %rsi, %rsi   /* requested addr */
  movq %rax, %rdi   /* SHM ID         */
call shmat@PLT

  cmpq $-1, %rax
  je   __afl_setup_abort

  /* Store the address of the SHM region. */

  movq %rax, shmptr_gcnt(%rip)

  leaq .SHM_ENV_CMP(%rip), %rdi
call getenv@PLT

  testq %rax, %rax
  je    __afl_setup_abort

  movq  %rax, %rdi
call atoi@PLT

  xorq %rdx, %rdx   /* shmat flags    */
  xorq %rsi, %rsi   /* requested addr */
  movq %rax, %rdi   /* SHM ID         */
call shmat@PLT

  cmpq $-1, %rax
  je   __afl_setup_abort

  /* Store the address of the SHM region. */

  movq %rax, shmptr_cmp(%rip)

  leaq .SHM_ENV_EDGE(%rip), %rdi
call getenv@PLT

  testq %rax, %rax
  je    __afl_setup_abort

  movq  %rax, %rdi
call atoi@PLT

  xorq %rdx, %rdx   /* shmat flags    */
  xorq %rsi, %rsi   /* requested addr */
  movq %rax, %rdi   /* SHM ID         */
call shmat@PLT

  cmpq $-1, %rax
  je   __afl_setup_abort

  /* Store the address of the SHM region. */

  movq %rax, shmptr_edge(%rip)
__afl_forkserver:

  /* Enter the fork server mode to avoid the overhead of execve() calls. We
     push rdx (area ptr) twice to keep stack alignment neat. */
  /* Phone home and tell the parent that we're OK. (Note that signals with
     no SA_RESTART will mess it up). If this fails, assume that the fd is
     closed because we were execve()d from an instrumented binary, or because
     the parent doesn't want to use the fork server. */

  movq $4, %rdx               /* length    */
  leaq __afl_temp(%rip), %rsi /* data      */
  movq $(196 + 1), %rdi       /* file desc */
call write@PLT

  cmpq $4, %rax
  jne  __afl_fork_resume

__afl_fork_wait_loop:

  /* Wait for parent by reading from the pipe. Abort if read fails. */

  movq $4, %rdx               /* length    */
  leaq __afl_temp(%rip), %rsi /* data      */
  movq $196, %rdi             /* file desc */
call read@PLT
  cmpq $4, %rax
  jne  __afl_die

  /* Once woken up, create a clone of our process. This is an excellent use
     case for syscall(__NR_clone, 0, CLONE_PARENT), but glibc boneheadedly
     caches getpid() results and offers no way to update the value, breaking
     abort(), raise(), and a bunch of other things :-( */

call fork@PLT
  cmpq $0, %rax
  jl   __afl_die
  je   __afl_fork_resume

  /* In parent process: write PID to pipe, then wait for child. */

  movl %eax, __afl_fork_pid(%rip)

  movq $4, %rdx                   /* length    */
  leaq __afl_fork_pid(%rip), %rsi /* data      */
  movq $(196 + 1), %rdi             /* file desc */
call write@PLT

  movq $0, %rdx                   /* no flags  */
  leaq __afl_temp(%rip), %rsi     /* status    */
  movq __afl_fork_pid(%rip), %rdi /* PID       */
call waitpid@PLT
  cmpq $0, %rax
  jle  __afl_die

  /* Relay wait status to pipe, then loop back. */

  movq $4, %rdx               /* length    */
  leaq __afl_temp(%rip), %rsi /* data      */
  movq $(196 + 1), %rdi         /* file desc */
call write@PLT

  jmp  __afl_fork_wait_loop


__afl_die:

  leaq .serverDied(%rip), %rdi 
  xorq %rax, %rax 
call printf@PLT
  xorq %rax, %rax
call _exit@PLT

__afl_setup_abort:

  movq %r12, %rsp
  popq %r12

  movq  0(%rsp), %rax
  movq  8(%rsp), %rcx
  movq 16(%rsp), %rdi
  movq 32(%rsp), %rsi
  movq 40(%rsp), %r8
  movq 48(%rsp), %r9
  movq 56(%rsp), %r10
  movq 64(%rsp), %r11

  movq  96(%rsp), %xmm0
  movq 112(%rsp), %xmm1
  movq 128(%rsp), %xmm2
  movq 144(%rsp), %xmm3
  movq 160(%rsp), %xmm4
  movq 176(%rsp), %xmm5
  movq 192(%rsp), %xmm6
  movq 208(%rsp), %xmm7
  movq 224(%rsp), %xmm8
  movq 240(%rsp), %xmm9
  movq 256(%rsp), %xmm10
  movq 272(%rsp), %xmm11
  movq 288(%rsp), %xmm12
  movq 304(%rsp), %xmm13
  movq 320(%rsp), %xmm14
  movq 336(%rsp), %xmm15

  movq 352(%rsp), %rdx
  leaq 360(%rsp), %rsp
  movb $127, %al 
  ret
__afl_fork_resume:

  /* In child process: close fds, resume execution. */

  movq $196, %rdi
call close@PLT

  movq $(196 + 1), %rdi
call close@PLT

 /*  Continue execution */

  movq %r12, %rsp
  popq %r12

  movq  0(%rsp), %rax
  movq  8(%rsp), %rcx
  movq 16(%rsp), %rdi
  movq 32(%rsp), %rsi
  movq 40(%rsp), %r8
  movq 48(%rsp), %r9
  movq 56(%rsp), %r10
  movq 64(%rsp), %r11

  movq  96(%rsp), %xmm0
  movq 112(%rsp), %xmm1
  movq 128(%rsp), %xmm2
  movq 144(%rsp), %xmm3
  movq 160(%rsp), %xmm4
  movq 176(%rsp), %xmm5
  movq 192(%rsp), %xmm6
  movq 208(%rsp), %xmm7
  movq 224(%rsp), %xmm8
  movq 240(%rsp), %xmm9
  movq 256(%rsp), %xmm10
  movq 272(%rsp), %xmm11
  movq 288(%rsp), %xmm12
  movq 304(%rsp), %xmm13
  movq 320(%rsp), %xmm14
  movq 336(%rsp), %xmm15
  movq 352(%rsp), %rdx
  leaq 360(%rsp), %rsp
  movb $0, %al 
  ret
  .comm   edgehash          8
  .comm   edgeId,           8
  .comm   shmSize,          4
  .comm   shmSize2,         4
  .comm   tmpquadone,       8
  .comm   tmpquadtwo,       8
  .comm   tmpquadrax,       8
  .comm   tmpquadrdi,       8
  .comm   tmpquadrsi,       8
  .comm   shmptr_cmp,      8
  .comm   shmptr_edge,     8
  .comm   shmptr_gcnt,     8
  .comm   cmpid,            8
  .comm   edgeCnt,       8
  .comm   cmpPassed,       8
  .comm   instswitch,      8
  .comm   funcinptr,       48
  .comm    cmpid_dict,     1400000
  .lcomm   __afl_fork_pid, 4
  .lcomm   __afl_temp,     4

.SHM_ENV_CMP:
  .asciz "SHM_ENV_CMP"
.SHM_ENV_EDGE: 
  .asciz "SHM_ENV_EDGE"
.SHM_ENV_GCNT:
  .asciz "SHM_ENV_GCNT"
.serverSetupError: 
  .asciz " Server Setup Error, continue runnig without server \n " 
.serverDied: 
  .asciz " Server is dead \n " 
.debug:  
  .asciz "debug message: %lu \n " 

/* --- END --- */

